# SymbolsHelper-Confirmed: 4:17.08.0 amd64
libKF5AkonadiPrivate.so.5 libkf5akonadiprivate5 #MINVER#
 _ZN7Akonadi10ImapParser10parseBlockERK10QByteArray@Base 15.07.90
 _ZN7Akonadi10ImapParser11parseNumberERK10QByteArrayRxPbi@Base 15.07.90
 _ZN7Akonadi10ImapParser11parseStringERK10QByteArrayR7QStringi@Base 15.07.90
 _ZN7Akonadi10ImapParser11parseStringERK10QByteArrayRS1_i@Base 15.07.90
 _ZN7Akonadi10ImapParser13parseDateTimeERK10QByteArrayR9QDateTimei@Base 15.07.90
 _ZN7Akonadi10ImapParser13parseNextLineERK10QByteArray@Base 15.07.90
 _ZN7Akonadi10ImapParser16parseSequenceSetERK10QByteArrayRNS_7ImapSetEi@Base 15.07.90
 _ZN7Akonadi10ImapParser17parseQuotedStringERK10QByteArrayRS1_i@Base 15.07.90
 _ZN7Akonadi10ImapParser17splitVersionedKeyERK10QByteArrayRS1_Ri@Base 15.07.90
 _ZN7Akonadi10ImapParser18parenthesesBalanceERK10QByteArrayi@Base 15.07.90
 _ZN7Akonadi10ImapParser18stripLeadingSpacesERK10QByteArrayi@Base 15.07.90
 _ZN7Akonadi10ImapParser22parseParenthesizedListERK10QByteArrayR15QVarLengthArrayIS1_Li16EEi@Base 15.07.90
 _ZN7Akonadi10ImapParser22parseParenthesizedListERK10QByteArrayR5QListIS1_Ei@Base 15.07.90
 _ZN7Akonadi10ImapParser4joinERK4QSetI10QByteArrayERKS2_@Base 15.07.90
 _ZN7Akonadi10ImapParser4joinERK5QListI10QByteArrayERKS2_@Base 15.07.90
 _ZN7Akonadi10ImapParser5quoteERK10QByteArray@Base 15.07.90
 _ZN7Akonadi10ImapParser5resetEv@Base 15.07.90
 _ZN7Akonadi10ImapParserC1Ev@Base 15.07.90
 _ZN7Akonadi10ImapParserC2Ev@Base 15.07.90
 _ZN7Akonadi10ImapParserD1Ev@Base 15.07.90
 _ZN7Akonadi10ImapParserD2Ev@Base 15.07.90
 _ZN7Akonadi11XdgBaseDirs14findPluginDirsEv@Base 15.07.90
 _ZN7Akonadi11XdgBaseDirs14findPluginFileERK7QStringRK11QStringList@Base 15.07.90
 _ZN7Akonadi11XdgBaseDirs14systemPathListEPKc@Base 15.07.90
 _ZN7Akonadi11XdgBaseDirs15findResourceDirEPKcRK7QString@Base 15.07.90
 _ZN7Akonadi11XdgBaseDirs16findResourceFileEPKcRK7QString@Base 15.07.90
 _ZN7Akonadi11XdgBaseDirs17akonadiConfigFileERK7QString6QFlagsINS0_14FileAccessFlagEE@Base 15.07.90
 _ZN7Akonadi11XdgBaseDirs18findExecutableFileERK7QStringRK11QStringList@Base 15.07.90
 _ZN7Akonadi11XdgBaseDirs18overrideConfigPathERK7QString@Base 4:17.08.0
 _ZN7Akonadi11XdgBaseDirs19findAllResourceDirsEPKcRK7QString@Base 15.07.90
 _ZN7Akonadi11XdgBaseDirs23akonadiServerConfigFileE6QFlagsINS0_14FileAccessFlagEERK7QString@Base 4:17.08.0
 _ZN7Akonadi11XdgBaseDirs27akonadiConnectionConfigFileE6QFlagsINS0_14FileAccessFlagEERK7QString@Base 4:17.08.0
 _ZN7Akonadi11XdgBaseDirs7saveDirEPKcRK7QString@Base 15.07.90
 _ZN7Akonadi11XdgBaseDirs8homePathEPKc@Base 15.07.90
 _ZN7Akonadi11XdgBaseDirsC1Ev@Base 15.07.90
 _ZN7Akonadi11XdgBaseDirsC2Ev@Base 15.07.90
 _ZN7Akonadi11XdgBaseDirsD1Ev@Base 15.07.90
 _ZN7Akonadi11XdgBaseDirsD2Ev@Base 15.07.90
 _ZN7Akonadi12ImapInterval6setEndEx@Base 15.07.90
 _ZN7Akonadi12ImapInterval8setBeginEx@Base 15.07.90
 _ZN7Akonadi12ImapIntervalC1ERKS0_@Base 15.07.90
 _ZN7Akonadi12ImapIntervalC1Ev@Base 15.07.90
 _ZN7Akonadi12ImapIntervalC1Exx@Base 15.07.90
 _ZN7Akonadi12ImapIntervalC2ERKS0_@Base 15.07.90
 _ZN7Akonadi12ImapIntervalC2Ev@Base 15.07.90
 _ZN7Akonadi12ImapIntervalC2Exx@Base 15.07.90
 _ZN7Akonadi12ImapIntervalD1Ev@Base 15.07.90
 _ZN7Akonadi12ImapIntervalD2Ev@Base 15.07.90
 _ZN7Akonadi12ImapIntervalaSERKS0_@Base 15.07.90
 _ZN7Akonadi12StandardDirs10configFileERK7QString6QFlagsINS_11XdgBaseDirs14FileAccessFlagEE@Base 15.12.0
 _ZN7Akonadi12StandardDirs15agentConfigFileE6QFlagsINS_11XdgBaseDirs14FileAccessFlagEE@Base 15.12.0
 _ZN7Akonadi12StandardDirs16serverConfigFileE6QFlagsINS_11XdgBaseDirs14FileAccessFlagEE@Base 15.12.0
 _ZN7Akonadi12StandardDirs20connectionConfigFileE6QFlagsINS_11XdgBaseDirs14FileAccessFlagEE@Base 15.12.0
 _ZN7Akonadi12StandardDirs7saveDirEPKcRK7QString@Base 15.12.0
 _ZN7Akonadi19ExternalPartStorage13nameForPartIdEx@Base 15.12.0
 _ZN7Akonadi19ExternalPartStorage14createPartFileERK10QByteArrayxRS1_@Base 15.12.0
 _ZN7Akonadi19ExternalPartStorage14removePartFileERK7QString@Base 15.12.0
 _ZN7Akonadi19ExternalPartStorage14updatePartFileERK10QByteArrayS3_RS1_@Base 15.12.0
 _ZN7Akonadi19ExternalPartStorage16addToTransactionERK7QVectorINS0_9OperationEE@Base 15.12.0
 _ZN7Akonadi19ExternalPartStorage16beginTransactionEv@Base 15.12.0
 _ZN7Akonadi19ExternalPartStorage17commitTransactionEv@Base 15.12.0
 _ZN7Akonadi19ExternalPartStorage17replayTransactionERK7QVectorINS0_9OperationEEb@Base 15.12.0
 _ZN7Akonadi19ExternalPartStorage18akonadiStoragePathEv@Base 15.12.0
 _ZN7Akonadi19ExternalPartStorage19resolveAbsolutePathERK10QByteArrayPbb@Base 15.12.0
 _ZN7Akonadi19ExternalPartStorage19resolveAbsolutePathERK7QStringPbb@Base 15.12.0
 _ZN7Akonadi19ExternalPartStorage19rollbackTransactionEv@Base 15.12.0
 _ZN7Akonadi19ExternalPartStorage22updateFileNameRevisionERK10QByteArray@Base 15.12.0
 _ZN7Akonadi19ExternalPartStorage4selfEv@Base 15.12.0
 _ZN7Akonadi19ExternalPartStorage9sInstanceE@Base 15.12.0
 _ZN7Akonadi19ExternalPartStorageC1Ev@Base 15.12.0
 _ZN7Akonadi19ExternalPartStorageC2Ev@Base 15.12.0
 _ZN7Akonadi30ExternalPartStorageTransaction6commitEv@Base 15.12.0
 _ZN7Akonadi30ExternalPartStorageTransaction8rollbackEv@Base 15.12.0
 _ZN7Akonadi30ExternalPartStorageTransactionC1Ev@Base 15.12.0
 _ZN7Akonadi30ExternalPartStorageTransactionC2Ev@Base 15.12.0
 _ZN7Akonadi30ExternalPartStorageTransactionD1Ev@Base 15.12.0
 _ZN7Akonadi30ExternalPartStorageTransactionD2Ev@Base 15.12.0
 _ZN7Akonadi4DBus11serviceNameENS0_11ServiceTypeE@Base 15.12.0
 _ZN7Akonadi4DBus16agentServiceNameERK7QStringNS0_9AgentTypeE@Base 15.12.0
 _ZN7Akonadi4DBus21parseAgentServiceNameERK7QStringRNS0_9AgentTypeE@Base 15.12.0
 _ZN7Akonadi5Scope12setHRidChainERK7QVectorINS0_4HRIDEE@Base 15.07.90
 _ZN7Akonadi5Scope4HRIDC1EOS1_@Base 15.07.90
 _ZN7Akonadi5Scope4HRIDC1ERKS1_@Base 15.07.90
 _ZN7Akonadi5Scope4HRIDC1Ev@Base 15.07.90
 _ZN7Akonadi5Scope4HRIDC1ExRK7QString@Base 15.07.90
 _ZN7Akonadi5Scope4HRIDC2EOS1_@Base 15.07.90
 _ZN7Akonadi5Scope4HRIDC2ERKS1_@Base 15.07.90
 _ZN7Akonadi5Scope4HRIDC2Ev@Base 15.07.90
 _ZN7Akonadi5Scope4HRIDC2ExRK7QString@Base 15.07.90
 _ZN7Akonadi5Scope4HRIDaSEOS1_@Base 15.07.90
 _ZN7Akonadi5Scope4HRIDaSERKS1_@Base 15.07.90
 _ZN7Akonadi5Scope9setGidSetERK11QStringList@Base 15.07.90
 _ZN7Akonadi5Scope9setRidSetERK11QStringList@Base 15.07.90
 _ZN7Akonadi5Scope9setUidSetERKNS_7ImapSetE@Base 15.07.90
 _ZN7Akonadi5ScopeC1ENS0_14SelectionScopeERK11QStringList@Base 15.07.90
 _ZN7Akonadi5ScopeC1EOS0_@Base 15.07.90
 _ZN7Akonadi5ScopeC1ERK7QVectorINS0_4HRIDEE@Base 15.07.90
 _ZN7Akonadi5ScopeC1ERK7QVectorIxE@Base 15.07.90
 _ZN7Akonadi5ScopeC1ERKNS_12ImapIntervalE@Base 15.07.90
 _ZN7Akonadi5ScopeC1ERKNS_7ImapSetE@Base 15.07.90
 _ZN7Akonadi5ScopeC1ERKS0_@Base 15.07.90
 _ZN7Akonadi5ScopeC1Ev@Base 15.07.90
 _ZN7Akonadi5ScopeC1Ex@Base 15.07.90
 _ZN7Akonadi5ScopeC2ENS0_14SelectionScopeERK11QStringList@Base 15.07.90
 _ZN7Akonadi5ScopeC2EOS0_@Base 15.07.90
 _ZN7Akonadi5ScopeC2ERK7QVectorINS0_4HRIDEE@Base 15.07.90
 _ZN7Akonadi5ScopeC2ERK7QVectorIxE@Base 15.07.90
 _ZN7Akonadi5ScopeC2ERKNS_12ImapIntervalE@Base 15.07.90
 _ZN7Akonadi5ScopeC2ERKNS_7ImapSetE@Base 15.07.90
 _ZN7Akonadi5ScopeC2ERKS0_@Base 15.07.90
 _ZN7Akonadi5ScopeC2Ev@Base 15.07.90
 _ZN7Akonadi5ScopeC2Ex@Base 15.07.90
 _ZN7Akonadi5ScopeD1Ev@Base 15.07.90
 _ZN7Akonadi5ScopeD2Ev@Base 15.07.90
 _ZN7Akonadi5ScopeaSEOS0_@Base 15.07.90
 _ZN7Akonadi5ScopeaSERKS0_@Base 15.07.90
 _ZN7Akonadi7ImapSet3addERK4QSetIxE@Base 15.07.90
 _ZN7Akonadi7ImapSet3addERK5QListIxE@Base 4:17.08.0
 _ZN7Akonadi7ImapSet3addERK7QVectorIxE@Base 15.07.90
 _ZN7Akonadi7ImapSet3addERKNS_12ImapIntervalE@Base 15.07.90
 _ZN7Akonadi7ImapSet3allEv@Base 15.07.90
 _ZN7Akonadi7ImapSetC1ERK5QListIxE@Base 4:17.08.0
 _ZN7Akonadi7ImapSetC1ERK7QVectorIxE@Base 15.07.90
 _ZN7Akonadi7ImapSetC1ERKNS_12ImapIntervalE@Base 15.07.90
 _ZN7Akonadi7ImapSetC1ERKS0_@Base 15.07.90
 _ZN7Akonadi7ImapSetC1Ev@Base 15.07.90
 _ZN7Akonadi7ImapSetC1Ex@Base 15.07.90
 _ZN7Akonadi7ImapSetC2ERK5QListIxE@Base 4:17.08.0
 _ZN7Akonadi7ImapSetC2ERK7QVectorIxE@Base 15.07.90
 _ZN7Akonadi7ImapSetC2ERKNS_12ImapIntervalE@Base 15.07.90
 _ZN7Akonadi7ImapSetC2ERKS0_@Base 15.07.90
 _ZN7Akonadi7ImapSetC2Ev@Base 15.07.90
 _ZN7Akonadi7ImapSetC2Ex@Base 15.07.90
 _ZN7Akonadi7ImapSetD1Ev@Base 15.07.90
 _ZN7Akonadi7ImapSetD2Ev@Base 15.07.90
 _ZN7Akonadi7ImapSetaSERKS0_@Base 15.07.90
 _ZN7Akonadi8Instance10identifierEv@Base 15.12.0
 _ZN7Akonadi8Instance13hasIdentifierEv@Base 15.12.0
 _ZN7Akonadi8Instance13setIdentifierERK7QString@Base 15.12.0
 _ZN7Akonadi8Protocol10FetchScope8setFetchE6QFlagsINS1_9FetchFlagEEb@Base 15.07.90
 _ZN7Akonadi8Protocol10FetchScopeC1ERKS1_@Base 15.07.90
 _ZN7Akonadi8Protocol10FetchScopeC1Ev@Base 15.07.90
 _ZN7Akonadi8Protocol10FetchScopeC2ERKS1_@Base 15.07.90
 _ZN7Akonadi8Protocol10FetchScopeC2Ev@Base 15.07.90
 _ZN7Akonadi8Protocol10FetchScopeD1Ev@Base 15.07.90
 _ZN7Akonadi8Protocol10FetchScopeD2Ev@Base 15.07.90
 _ZN7Akonadi8Protocol10FetchScopeaSERKS1_@Base 15.07.90
 _ZN7Akonadi8Protocol11CachePolicyC1ERKS1_@Base 15.07.90
 _ZN7Akonadi8Protocol11CachePolicyC1Ev@Base 15.07.90
 _ZN7Akonadi8Protocol11CachePolicyC2ERKS1_@Base 15.07.90
 _ZN7Akonadi8Protocol11CachePolicyC2Ev@Base 15.07.90
 _ZN7Akonadi8Protocol11CachePolicyD1Ev@Base 15.07.90
 _ZN7Akonadi8Protocol11CachePolicyD2Ev@Base 15.07.90
 _ZN7Akonadi8Protocol11CachePolicyaSERKS1_@Base 15.07.90
 _ZN7Akonadi8Protocol11debugStringERKNS0_7CommandE@Base 4:17.08.0
 _ZN7Akonadi8Protocol11deserializeEP9QIODevice@Base 15.07.90
 _ZN7Akonadi8Protocol12LoginCommandC1ERK10QByteArray@Base 4:17.08.0
 _ZN7Akonadi8Protocol12LoginCommandC1ERKS1_@Base 4:17.08.0
 _ZN7Akonadi8Protocol12LoginCommandC1Ev@Base 15.07.90
 _ZN7Akonadi8Protocol12LoginCommandC2ERK10QByteArray@Base 4:17.08.0
 _ZN7Akonadi8Protocol12LoginCommandC2ERKS1_@Base 4:17.08.0
 _ZN7Akonadi8Protocol12LoginCommandC2Ev@Base 15.07.90
 _ZN7Akonadi8Protocol12LoginCommandD1Ev@Base 4:17.08.0
 _ZN7Akonadi8Protocol12LoginCommandD2Ev@Base 4:17.08.0
 _ZN7Akonadi8Protocol12LoginCommandaSERKS1_@Base 4:17.08.0
 _ZN7Akonadi8Protocol12PartMetaDataC1ERK10QByteArrayRKxRKiRKNS1_11StorageTypeE@Base 4:17.08.0
 _ZN7Akonadi8Protocol12PartMetaDataC1ERKS1_@Base 15.07.90
 _ZN7Akonadi8Protocol12PartMetaDataC1Ev@Base 15.07.90
 _ZN7Akonadi8Protocol12PartMetaDataC2ERK10QByteArrayRKxRKiRKNS1_11StorageTypeE@Base 4:17.08.0
 _ZN7Akonadi8Protocol12PartMetaDataC2ERKS1_@Base 15.07.90
 _ZN7Akonadi8Protocol12PartMetaDataC2Ev@Base 15.07.90
 _ZN7Akonadi8Protocol12PartMetaDataD1Ev@Base 15.07.90
 _ZN7Akonadi8Protocol12PartMetaDataD2Ev@Base 15.07.90
 _ZN7Akonadi8Protocol12PartMetaDataaSERKS1_@Base 15.07.90
 _ZN7Akonadi8Protocol12ScopeContextC1ENS1_4TypeERK7QString@Base 15.07.90
 _ZN7Akonadi8Protocol12ScopeContextC1ENS1_4TypeEx@Base 15.07.90
 _ZN7Akonadi8Protocol12ScopeContextC1ERKS1_@Base 15.07.90
 _ZN7Akonadi8Protocol12ScopeContextC1Ev@Base 15.07.90
 _ZN7Akonadi8Protocol12ScopeContextC2ENS1_4TypeERK7QString@Base 15.07.90
 _ZN7Akonadi8Protocol12ScopeContextC2ENS1_4TypeEx@Base 15.07.90
 _ZN7Akonadi8Protocol12ScopeContextC2ERKS1_@Base 15.07.90
 _ZN7Akonadi8Protocol12ScopeContextC2Ev@Base 15.07.90
 _ZN7Akonadi8Protocol12ScopeContextD1Ev@Base 15.07.90
 _ZN7Akonadi8Protocol12ScopeContextD2Ev@Base 15.07.90
 _ZN7Akonadi8Protocol12ScopeContextaSERKS1_@Base 15.07.90
 _ZN7Akonadi8Protocol13HelloResponseC1ERKS1_@Base 4:17.08.0
 _ZN7Akonadi8Protocol13HelloResponseC1Ev@Base 15.07.90
 _ZN7Akonadi8Protocol13HelloResponseC2ERKS1_@Base 4:17.08.0
 _ZN7Akonadi8Protocol13HelloResponseC2Ev@Base 15.07.90
 _ZN7Akonadi8Protocol13HelloResponseD1Ev@Base 4:17.08.0
 _ZN7Akonadi8Protocol13HelloResponseD2Ev@Base 4:17.08.0
 _ZN7Akonadi8Protocol13HelloResponseaSERKS1_@Base 4:17.08.0
 _ZN7Akonadi8Protocol13LoginResponseC1ERKS1_@Base 4:17.08.0
 _ZN7Akonadi8Protocol13LoginResponseC1Ev@Base 15.07.90
 _ZN7Akonadi8Protocol13LoginResponseC2ERKS1_@Base 4:17.08.0
 _ZN7Akonadi8Protocol13LoginResponseC2Ev@Base 15.07.90
 _ZN7Akonadi8Protocol13LoginResponseD1Ev@Base 4:17.08.0
 _ZN7Akonadi8Protocol13LoginResponseD2Ev@Base 4:17.08.0
 _ZN7Akonadi8Protocol13LoginResponseaSERKS1_@Base 4:17.08.0
 _ZN7Akonadi8Protocol13LogoutCommandC1ERKS1_@Base 4:17.08.0
 _ZN7Akonadi8Protocol13LogoutCommandC1Ev@Base 15.07.90
 _ZN7Akonadi8Protocol13LogoutCommandC2ERKS1_@Base 4:17.08.0
 _ZN7Akonadi8Protocol13LogoutCommandC2Ev@Base 15.07.90
 _ZN7Akonadi8Protocol13LogoutCommandD1Ev@Base 4:17.08.0
 _ZN7Akonadi8Protocol13LogoutCommandD2Ev@Base 4:17.08.0
 _ZN7Akonadi8Protocol13LogoutCommandaSERKS1_@Base 4:17.08.0
 _ZN7Akonadi8Protocol13SearchCommandC1ERK7QString@Base 4:17.08.0
 _ZN7Akonadi8Protocol13SearchCommandC1ERKS1_@Base 4:17.08.0
 _ZN7Akonadi8Protocol13SearchCommandC1Ev@Base 15.07.90
 _ZN7Akonadi8Protocol13SearchCommandC2ERK7QString@Base 4:17.08.0
 _ZN7Akonadi8Protocol13SearchCommandC2ERKS1_@Base 4:17.08.0
 _ZN7Akonadi8Protocol13SearchCommandC2Ev@Base 15.07.90
 _ZN7Akonadi8Protocol13SearchCommandD1Ev@Base 4:17.08.0
 _ZN7Akonadi8Protocol13SearchCommandD2Ev@Base 4:17.08.0
 _ZN7Akonadi8Protocol13SearchCommandaSERKS1_@Base 4:17.08.0
 _ZN7Akonadi8Protocol14LogoutResponseC1ERKS1_@Base 4:17.08.0
 _ZN7Akonadi8Protocol14LogoutResponseC1Ev@Base 15.07.90
 _ZN7Akonadi8Protocol14LogoutResponseC2ERKS1_@Base 4:17.08.0
 _ZN7Akonadi8Protocol14LogoutResponseC2Ev@Base 15.07.90
 _ZN7Akonadi8Protocol14LogoutResponseD1Ev@Base 4:17.08.0
 _ZN7Akonadi8Protocol14LogoutResponseD2Ev@Base 4:17.08.0
 _ZN7Akonadi8Protocol14LogoutResponseaSERKS1_@Base 4:17.08.0
 _ZN7Akonadi8Protocol14SearchResponseC1ERKS1_@Base 4:17.08.0
 _ZN7Akonadi8Protocol14SearchResponseC1Ev@Base 15.07.90
 _ZN7Akonadi8Protocol14SearchResponseC2ERKS1_@Base 4:17.08.0
 _ZN7Akonadi8Protocol14SearchResponseC2Ev@Base 15.07.90
 _ZN7Akonadi8Protocol14SearchResponseD1Ev@Base 4:17.08.0
 _ZN7Akonadi8Protocol14SearchResponseD2Ev@Base 4:17.08.0
 _ZN7Akonadi8Protocol14SearchResponseaSERKS1_@Base 4:17.08.0
 _ZN7Akonadi8Protocol16CopyItemsCommandC1ERKNS_5ScopeES4_@Base 15.07.90
 _ZN7Akonadi8Protocol16CopyItemsCommandC1ERKS1_@Base 4:17.08.0
 _ZN7Akonadi8Protocol16CopyItemsCommandC1Ev@Base 15.07.90
 _ZN7Akonadi8Protocol16CopyItemsCommandC2ERKNS_5ScopeES4_@Base 15.07.90
 _ZN7Akonadi8Protocol16CopyItemsCommandC2ERKS1_@Base 4:17.08.0
 _ZN7Akonadi8Protocol16CopyItemsCommandC2Ev@Base 15.07.90
 _ZN7Akonadi8Protocol16CopyItemsCommandD1Ev@Base 4:17.08.0
 _ZN7Akonadi8Protocol16CopyItemsCommandD2Ev@Base 4:17.08.0
 _ZN7Akonadi8Protocol16CopyItemsCommandaSERKS1_@Base 4:17.08.0
 _ZN7Akonadi8Protocol16CreateTagCommandC1ERKS1_@Base 4:17.08.0
 _ZN7Akonadi8Protocol16CreateTagCommandC1Ev@Base 15.07.90
 _ZN7Akonadi8Protocol16CreateTagCommandC2ERKS1_@Base 4:17.08.0
 _ZN7Akonadi8Protocol16CreateTagCommandC2Ev@Base 15.07.90
 _ZN7Akonadi8Protocol16CreateTagCommandD1Ev@Base 4:17.08.0
 _ZN7Akonadi8Protocol16CreateTagCommandD2Ev@Base 4:17.08.0
 _ZN7Akonadi8Protocol16CreateTagCommandaSERKS1_@Base 4:17.08.0
 _ZN7Akonadi8Protocol16DeleteTagCommandC1ERKNS_5ScopeE@Base 15.07.90
 _ZN7Akonadi8Protocol16DeleteTagCommandC1ERKS1_@Base 4:17.08.0
 _ZN7Akonadi8Protocol16DeleteTagCommandC1Ev@Base 15.07.90
 _ZN7Akonadi8Protocol16DeleteTagCommandC2ERKNS_5ScopeE@Base 15.07.90
 _ZN7Akonadi8Protocol16DeleteTagCommandC2ERKS1_@Base 4:17.08.0
 _ZN7Akonadi8Protocol16DeleteTagCommandC2Ev@Base 15.07.90
 _ZN7Akonadi8Protocol16DeleteTagCommandD1Ev@Base 4:17.08.0
 _ZN7Akonadi8Protocol16DeleteTagCommandD2Ev@Base 4:17.08.0
 _ZN7Akonadi8Protocol16DeleteTagCommandaSERKS1_@Base 4:17.08.0
 _ZN7Akonadi8Protocol16FetchTagsCommandC1ERKNS_5ScopeE@Base 15.07.90
 _ZN7Akonadi8Protocol16FetchTagsCommandC1ERKS1_@Base 4:17.08.0
 _ZN7Akonadi8Protocol16FetchTagsCommandC1Ev@Base 15.07.90
 _ZN7Akonadi8Protocol16FetchTagsCommandC2ERKNS_5ScopeE@Base 15.07.90
 _ZN7Akonadi8Protocol16FetchTagsCommandC2ERKS1_@Base 4:17.08.0
 _ZN7Akonadi8Protocol16FetchTagsCommandC2Ev@Base 15.07.90
 _ZN7Akonadi8Protocol16FetchTagsCommandD1Ev@Base 4:17.08.0
 _ZN7Akonadi8Protocol16FetchTagsCommandD2Ev@Base 4:17.08.0
 _ZN7Akonadi8Protocol16FetchTagsCommandaSERKS1_@Base 4:17.08.0
 _ZN7Akonadi8Protocol16LinkItemsCommandC1ERKNS1_6ActionERKNS_5ScopeES7_@Base 4:17.08.0
 _ZN7Akonadi8Protocol16LinkItemsCommandC1ERKS1_@Base 4:17.08.0
 _ZN7Akonadi8Protocol16LinkItemsCommandC1Ev@Base 15.07.90
 _ZN7Akonadi8Protocol16LinkItemsCommandC2ERKNS1_6ActionERKNS_5ScopeES7_@Base 4:17.08.0
 _ZN7Akonadi8Protocol16LinkItemsCommandC2ERKS1_@Base 4:17.08.0
 _ZN7Akonadi8Protocol16LinkItemsCommandC2Ev@Base 15.07.90
 _ZN7Akonadi8Protocol16LinkItemsCommandD1Ev@Base 4:17.08.0
 _ZN7Akonadi8Protocol16LinkItemsCommandD2Ev@Base 4:17.08.0
 _ZN7Akonadi8Protocol16LinkItemsCommandaSERKS1_@Base 4:17.08.0
 _ZN7Akonadi8Protocol16ModifyTagCommand11setParentIdERKx@Base 4:17.08.0
 _ZN7Akonadi8Protocol16ModifyTagCommand11setRemoteIdERK10QByteArray@Base 15.07.90
 _ZN7Akonadi8Protocol16ModifyTagCommand13setAttributesERK4QMapI10QByteArrayS3_E@Base 15.07.90
 _ZN7Akonadi8Protocol16ModifyTagCommand20setRemovedAttributesERK4QSetI10QByteArrayE@Base 15.07.90
 _ZN7Akonadi8Protocol16ModifyTagCommand7setTypeERK10QByteArray@Base 15.07.90
 _ZN7Akonadi8Protocol16ModifyTagCommandC1ERKS1_@Base 4:17.08.0
 _ZN7Akonadi8Protocol16ModifyTagCommandC1ERKx@Base 4:17.08.0
 _ZN7Akonadi8Protocol16ModifyTagCommandC1Ev@Base 15.07.90
 _ZN7Akonadi8Protocol16ModifyTagCommandC2ERKS1_@Base 4:17.08.0
 _ZN7Akonadi8Protocol16ModifyTagCommandC2ERKx@Base 4:17.08.0
 _ZN7Akonadi8Protocol16ModifyTagCommandC2Ev@Base 15.07.90
 _ZN7Akonadi8Protocol16ModifyTagCommandD1Ev@Base 4:17.08.0
 _ZN7Akonadi8Protocol16ModifyTagCommandD2Ev@Base 4:17.08.0
 _ZN7Akonadi8Protocol16ModifyTagCommandaSERKS1_@Base 4:17.08.0
 _ZN7Akonadi8Protocol16MoveItemsCommandC1ERKNS_5ScopeERKNS0_12ScopeContextES4_@Base 15.07.90
 _ZN7Akonadi8Protocol16MoveItemsCommandC1ERKNS_5ScopeES4_@Base 15.07.90
 _ZN7Akonadi8Protocol16MoveItemsCommandC1ERKS1_@Base 4:17.08.0
 _ZN7Akonadi8Protocol16MoveItemsCommandC1Ev@Base 15.07.90
 _ZN7Akonadi8Protocol16MoveItemsCommandC2ERKNS_5ScopeERKNS0_12ScopeContextES4_@Base 15.07.90
 _ZN7Akonadi8Protocol16MoveItemsCommandC2ERKNS_5ScopeES4_@Base 15.07.90
 _ZN7Akonadi8Protocol16MoveItemsCommandC2ERKS1_@Base 4:17.08.0
 _ZN7Akonadi8Protocol16MoveItemsCommandC2Ev@Base 15.07.90
 _ZN7Akonadi8Protocol16MoveItemsCommandD1Ev@Base 4:17.08.0
 _ZN7Akonadi8Protocol16MoveItemsCommandD2Ev@Base 4:17.08.0
 _ZN7Akonadi8Protocol16MoveItemsCommandaSERKS1_@Base 4:17.08.0
 _ZN7Akonadi8Protocol17CopyItemsResponseC1ERKS1_@Base 4:17.08.0
 _ZN7Akonadi8Protocol17CopyItemsResponseC1Ev@Base 15.07.90
 _ZN7Akonadi8Protocol17CopyItemsResponseC2ERKS1_@Base 4:17.08.0
 _ZN7Akonadi8Protocol17CopyItemsResponseC2Ev@Base 15.07.90
 _ZN7Akonadi8Protocol17CopyItemsResponseD1Ev@Base 4:17.08.0
 _ZN7Akonadi8Protocol17CopyItemsResponseD2Ev@Base 4:17.08.0
 _ZN7Akonadi8Protocol17CopyItemsResponseaSERKS1_@Base 4:17.08.0
 _ZN7Akonadi8Protocol17CreateItemCommandC1ERKS1_@Base 4:17.08.0
 _ZN7Akonadi8Protocol17CreateItemCommandC1Ev@Base 15.07.90
 _ZN7Akonadi8Protocol17CreateItemCommandC2ERKS1_@Base 4:17.08.0
 _ZN7Akonadi8Protocol17CreateItemCommandC2Ev@Base 15.07.90
 _ZN7Akonadi8Protocol17CreateItemCommandD1Ev@Base 4:17.08.0
 _ZN7Akonadi8Protocol17CreateItemCommandD2Ev@Base 4:17.08.0
 _ZN7Akonadi8Protocol17CreateItemCommandaSERKS1_@Base 4:17.08.0
 _ZN7Akonadi8Protocol17CreateTagResponseC1ERKS1_@Base 4:17.08.0
 _ZN7Akonadi8Protocol17CreateTagResponseC1Ev@Base 15.07.90
 _ZN7Akonadi8Protocol17CreateTagResponseC2ERKS1_@Base 4:17.08.0
 _ZN7Akonadi8Protocol17CreateTagResponseC2Ev@Base 15.07.90
 _ZN7Akonadi8Protocol17CreateTagResponseD1Ev@Base 4:17.08.0
 _ZN7Akonadi8Protocol17CreateTagResponseD2Ev@Base 4:17.08.0
 _ZN7Akonadi8Protocol17CreateTagResponseaSERKS1_@Base 4:17.08.0
 _ZN7Akonadi8Protocol17DeleteTagResponseC1ERKS1_@Base 4:17.08.0
 _ZN7Akonadi8Protocol17DeleteTagResponseC1Ev@Base 15.07.90
 _ZN7Akonadi8Protocol17DeleteTagResponseC2ERKS1_@Base 4:17.08.0
 _ZN7Akonadi8Protocol17DeleteTagResponseC2Ev@Base 15.07.90
 _ZN7Akonadi8Protocol17DeleteTagResponseD1Ev@Base 4:17.08.0
 _ZN7Akonadi8Protocol17DeleteTagResponseD2Ev@Base 4:17.08.0
 _ZN7Akonadi8Protocol17DeleteTagResponseaSERKS1_@Base 4:17.08.0
 _ZN7Akonadi8Protocol17FetchItemsCommandC1ERKNS_5ScopeERKNS0_12ScopeContextERKNS0_10FetchScopeE@Base 15.07.90
 _ZN7Akonadi8Protocol17FetchItemsCommandC1ERKS1_@Base 4:17.08.0
 _ZN7Akonadi8Protocol17FetchItemsCommandC1Ev@Base 15.07.90
 _ZN7Akonadi8Protocol17FetchItemsCommandC2ERKNS_5ScopeERKNS0_12ScopeContextERKNS0_10FetchScopeE@Base 15.07.90
 _ZN7Akonadi8Protocol17FetchItemsCommandC2ERKS1_@Base 4:17.08.0
 _ZN7Akonadi8Protocol17FetchItemsCommandC2Ev@Base 15.07.90
 _ZN7Akonadi8Protocol17FetchItemsCommandD1Ev@Base 4:17.08.0
 _ZN7Akonadi8Protocol17FetchItemsCommandD2Ev@Base 4:17.08.0
 _ZN7Akonadi8Protocol17FetchItemsCommandaSERKS1_@Base 4:17.08.0
 _ZN7Akonadi8Protocol17FetchTagsResponseC1ERKS1_@Base 4:17.08.0
 _ZN7Akonadi8Protocol17FetchTagsResponseC1ERKx@Base 4:17.08.0
 _ZN7Akonadi8Protocol17FetchTagsResponseC1ERKxRK10QByteArrayS6_S6_S3_RK4QMapIS4_S4_E@Base 4:17.08.0
 _ZN7Akonadi8Protocol17FetchTagsResponseC1Ev@Base 15.07.90
 _ZN7Akonadi8Protocol17FetchTagsResponseC2ERKS1_@Base 4:17.08.0
 _ZN7Akonadi8Protocol17FetchTagsResponseC2ERKx@Base 4:17.08.0
 _ZN7Akonadi8Protocol17FetchTagsResponseC2ERKxRK10QByteArrayS6_S6_S3_RK4QMapIS4_S4_E@Base 4:17.08.0
 _ZN7Akonadi8Protocol17FetchTagsResponseC2Ev@Base 15.07.90
 _ZN7Akonadi8Protocol17FetchTagsResponseD1Ev@Base 4:17.08.0
 _ZN7Akonadi8Protocol17FetchTagsResponseD2Ev@Base 4:17.08.0
 _ZN7Akonadi8Protocol17FetchTagsResponseaSERKS1_@Base 4:17.08.0
 _ZN7Akonadi8Protocol17LinkItemsResponseC1ERKS1_@Base 4:17.08.0
 _ZN7Akonadi8Protocol17LinkItemsResponseC1Ev@Base 15.07.90
 _ZN7Akonadi8Protocol17LinkItemsResponseC2ERKS1_@Base 4:17.08.0
 _ZN7Akonadi8Protocol17LinkItemsResponseC2Ev@Base 15.07.90
 _ZN7Akonadi8Protocol17LinkItemsResponseD1Ev@Base 4:17.08.0
 _ZN7Akonadi8Protocol17LinkItemsResponseD2Ev@Base 4:17.08.0
 _ZN7Akonadi8Protocol17LinkItemsResponseaSERKS1_@Base 4:17.08.0
 _ZN7Akonadi8Protocol17ModifyTagResponseC1ERKS1_@Base 4:17.08.0
 _ZN7Akonadi8Protocol17ModifyTagResponseC1Ev@Base 15.07.90
 _ZN7Akonadi8Protocol17ModifyTagResponseC2ERKS1_@Base 4:17.08.0
 _ZN7Akonadi8Protocol17ModifyTagResponseC2Ev@Base 15.07.90
 _ZN7Akonadi8Protocol17ModifyTagResponseD1Ev@Base 4:17.08.0
 _ZN7Akonadi8Protocol17ModifyTagResponseD2Ev@Base 4:17.08.0
 _ZN7Akonadi8Protocol17ModifyTagResponseaSERKS1_@Base 4:17.08.0
 _ZN7Akonadi8Protocol17MoveItemsResponseC1ERKS1_@Base 4:17.08.0
 _ZN7Akonadi8Protocol17MoveItemsResponseC1Ev@Base 15.07.90
 _ZN7Akonadi8Protocol17MoveItemsResponseC2ERKS1_@Base 4:17.08.0
 _ZN7Akonadi8Protocol17MoveItemsResponseC2Ev@Base 15.07.90
 _ZN7Akonadi8Protocol17MoveItemsResponseD1Ev@Base 4:17.08.0
 _ZN7Akonadi8Protocol17MoveItemsResponseD2Ev@Base 4:17.08.0
 _ZN7Akonadi8Protocol17MoveItemsResponseaSERKS1_@Base 4:17.08.0
 _ZN7Akonadi8Protocol18ChangeNotification17appendAndCompressER7QVectorI14QSharedPointerIS1_EERKS4_@Base 4:17.08.0
 _ZN7Akonadi8Protocol18ChangeNotificationC1ENS0_7Command4TypeE@Base 4:17.08.0
 _ZN7Akonadi8Protocol18ChangeNotificationC1ERKS1_@Base 4:17.08.0
 _ZN7Akonadi8Protocol18ChangeNotificationC2ENS0_7Command4TypeE@Base 4:17.08.0
 _ZN7Akonadi8Protocol18ChangeNotificationC2ERKS1_@Base 4:17.08.0
 _ZN7Akonadi8Protocol18ChangeNotificationaSERKS1_@Base 4:17.08.0
 _ZN7Akonadi8Protocol18CreateItemResponseC1ERKS1_@Base 4:17.08.0
 _ZN7Akonadi8Protocol18CreateItemResponseC1Ev@Base 15.07.90
 _ZN7Akonadi8Protocol18CreateItemResponseC2ERKS1_@Base 4:17.08.0
 _ZN7Akonadi8Protocol18CreateItemResponseC2Ev@Base 15.07.90
 _ZN7Akonadi8Protocol18CreateItemResponseD1Ev@Base 4:17.08.0
 _ZN7Akonadi8Protocol18CreateItemResponseD2Ev@Base 4:17.08.0
 _ZN7Akonadi8Protocol18CreateItemResponseaSERKS1_@Base 4:17.08.0
 _ZN7Akonadi8Protocol18DeleteItemsCommandC1ERKNS_5ScopeERKNS0_12ScopeContextE@Base 15.07.90
 _ZN7Akonadi8Protocol18DeleteItemsCommandC1ERKS1_@Base 4:17.08.0
 _ZN7Akonadi8Protocol18DeleteItemsCommandC1Ev@Base 15.07.90
 _ZN7Akonadi8Protocol18DeleteItemsCommandC2ERKNS_5ScopeERKNS0_12ScopeContextE@Base 15.07.90
 _ZN7Akonadi8Protocol18DeleteItemsCommandC2ERKS1_@Base 4:17.08.0
 _ZN7Akonadi8Protocol18DeleteItemsCommandC2Ev@Base 15.07.90
 _ZN7Akonadi8Protocol18DeleteItemsCommandD1Ev@Base 4:17.08.0
 _ZN7Akonadi8Protocol18DeleteItemsCommandD2Ev@Base 4:17.08.0
 _ZN7Akonadi8Protocol18DeleteItemsCommandaSERKS1_@Base 4:17.08.0
 _ZN7Akonadi8Protocol18FetchItemsResponseC1ERKS1_@Base 4:17.08.0
 _ZN7Akonadi8Protocol18FetchItemsResponseC1ERKx@Base 4:17.08.0
 _ZN7Akonadi8Protocol18FetchItemsResponseC1Ev@Base 15.07.90
 _ZN7Akonadi8Protocol18FetchItemsResponseC2ERKS1_@Base 4:17.08.0
 _ZN7Akonadi8Protocol18FetchItemsResponseC2ERKx@Base 4:17.08.0
 _ZN7Akonadi8Protocol18FetchItemsResponseC2Ev@Base 15.07.90
 _ZN7Akonadi8Protocol18FetchItemsResponseD1Ev@Base 4:17.08.0
 _ZN7Akonadi8Protocol18FetchItemsResponseD2Ev@Base 4:17.08.0
 _ZN7Akonadi8Protocol18FetchItemsResponseaSERKS1_@Base 4:17.08.0
 _ZN7Akonadi8Protocol18ModifyItemsCommand11setItemSizeERKx@Base 4:17.08.0
 _ZN7Akonadi8Protocol18ModifyItemsCommand11setRemoteIdERK7QString@Base 15.07.90
 _ZN7Akonadi8Protocol18ModifyItemsCommand12setAddedTagsERKNS_5ScopeE@Base 15.07.90
 _ZN7Akonadi8Protocol18ModifyItemsCommand13setAddedFlagsERK4QSetI10QByteArrayE@Base 15.07.90
 _ZN7Akonadi8Protocol18ModifyItemsCommand13setAttributesERK4QMapI10QByteArrayS3_E@Base 15.07.90
 _ZN7Akonadi8Protocol18ModifyItemsCommand14setRemovedTagsERKNS_5ScopeE@Base 15.07.90
 _ZN7Akonadi8Protocol18ModifyItemsCommand15setRemovedFlagsERK4QSetI10QByteArrayE@Base 15.07.90
 _ZN7Akonadi8Protocol18ModifyItemsCommand15setRemovedPartsERK4QSetI10QByteArrayE@Base 15.07.90
 _ZN7Akonadi8Protocol18ModifyItemsCommand17setRemoteRevisionERK7QString@Base 15.07.90
 _ZN7Akonadi8Protocol18ModifyItemsCommand6setGidERK7QString@Base 15.07.90
 _ZN7Akonadi8Protocol18ModifyItemsCommand7setTagsERKNS_5ScopeE@Base 15.07.90
 _ZN7Akonadi8Protocol18ModifyItemsCommand8setFlagsERK4QSetI10QByteArrayE@Base 15.07.90
 _ZN7Akonadi8Protocol18ModifyItemsCommand8setPartsERK4QSetI10QByteArrayE@Base 15.07.90
 _ZN7Akonadi8Protocol18ModifyItemsCommandC1ERKNS_5ScopeE@Base 15.07.90
 _ZN7Akonadi8Protocol18ModifyItemsCommandC1ERKS1_@Base 4:17.08.0
 _ZN7Akonadi8Protocol18ModifyItemsCommandC1Ev@Base 15.07.90
 _ZN7Akonadi8Protocol18ModifyItemsCommandC2ERKNS_5ScopeE@Base 15.07.90
 _ZN7Akonadi8Protocol18ModifyItemsCommandC2ERKS1_@Base 4:17.08.0
 _ZN7Akonadi8Protocol18ModifyItemsCommandC2Ev@Base 15.07.90
 _ZN7Akonadi8Protocol18ModifyItemsCommandD1Ev@Base 4:17.08.0
 _ZN7Akonadi8Protocol18ModifyItemsCommandD2Ev@Base 4:17.08.0
 _ZN7Akonadi8Protocol18ModifyItemsCommandaSERKS1_@Base 4:17.08.0
 _ZN7Akonadi8Protocol18StoreSearchCommandC1ERKS1_@Base 4:17.08.0
 _ZN7Akonadi8Protocol18StoreSearchCommandC1Ev@Base 15.07.90
 _ZN7Akonadi8Protocol18StoreSearchCommandC2ERKS1_@Base 4:17.08.0
 _ZN7Akonadi8Protocol18StoreSearchCommandC2Ev@Base 15.07.90
 _ZN7Akonadi8Protocol18StoreSearchCommandD1Ev@Base 4:17.08.0
 _ZN7Akonadi8Protocol18StoreSearchCommandD2Ev@Base 4:17.08.0
 _ZN7Akonadi8Protocol18StoreSearchCommandaSERKS1_@Base 4:17.08.0
 _ZN7Akonadi8Protocol18TransactionCommandC1ERKNS1_4ModeE@Base 4:17.08.0
 _ZN7Akonadi8Protocol18TransactionCommandC1ERKS1_@Base 4:17.08.0
 _ZN7Akonadi8Protocol18TransactionCommandC1Ev@Base 15.07.90
 _ZN7Akonadi8Protocol18TransactionCommandC2ERKNS1_4ModeE@Base 4:17.08.0
 _ZN7Akonadi8Protocol18TransactionCommandC2ERKS1_@Base 4:17.08.0
 _ZN7Akonadi8Protocol18TransactionCommandC2Ev@Base 15.07.90
 _ZN7Akonadi8Protocol18TransactionCommandD1Ev@Base 4:17.08.0
 _ZN7Akonadi8Protocol18TransactionCommandD2Ev@Base 4:17.08.0
 _ZN7Akonadi8Protocol18TransactionCommandaSERKS1_@Base 4:17.08.0
 _ZN7Akonadi8Protocol19DeleteItemsResponseC1ERKS1_@Base 4:17.08.0
 _ZN7Akonadi8Protocol19DeleteItemsResponseC1Ev@Base 15.07.90
 _ZN7Akonadi8Protocol19DeleteItemsResponseC2ERKS1_@Base 4:17.08.0
 _ZN7Akonadi8Protocol19DeleteItemsResponseC2Ev@Base 15.07.90
 _ZN7Akonadi8Protocol19DeleteItemsResponseD1Ev@Base 4:17.08.0
 _ZN7Akonadi8Protocol19DeleteItemsResponseD2Ev@Base 4:17.08.0
 _ZN7Akonadi8Protocol19DeleteItemsResponseaSERKS1_@Base 4:17.08.0
 _ZN7Akonadi8Protocol19ModifyItemsResponseC1ERKS1_@Base 4:17.08.0
 _ZN7Akonadi8Protocol19ModifyItemsResponseC1ERKxRKi@Base 4:17.08.0
 _ZN7Akonadi8Protocol19ModifyItemsResponseC1Ev@Base 15.07.90
 _ZN7Akonadi8Protocol19ModifyItemsResponseC2ERKS1_@Base 4:17.08.0
 _ZN7Akonadi8Protocol19ModifyItemsResponseC2ERKxRKi@Base 4:17.08.0
 _ZN7Akonadi8Protocol19ModifyItemsResponseC2Ev@Base 15.07.90
 _ZN7Akonadi8Protocol19ModifyItemsResponseD1Ev@Base 4:17.08.0
 _ZN7Akonadi8Protocol19ModifyItemsResponseD2Ev@Base 4:17.08.0
 _ZN7Akonadi8Protocol19ModifyItemsResponseaSERKS1_@Base 4:17.08.0
 _ZN7Akonadi8Protocol19SearchResultCommandC1ERK10QByteArrayRKxRKNS_5ScopeE@Base 4:17.08.0
 _ZN7Akonadi8Protocol19SearchResultCommandC1ERKS1_@Base 4:17.08.0
 _ZN7Akonadi8Protocol19SearchResultCommandC1Ev@Base 15.07.90
 _ZN7Akonadi8Protocol19SearchResultCommandC2ERK10QByteArrayRKxRKNS_5ScopeE@Base 4:17.08.0
 _ZN7Akonadi8Protocol19SearchResultCommandC2ERKS1_@Base 4:17.08.0
 _ZN7Akonadi8Protocol19SearchResultCommandC2Ev@Base 15.07.90
 _ZN7Akonadi8Protocol19SearchResultCommandD1Ev@Base 4:17.08.0
 _ZN7Akonadi8Protocol19SearchResultCommandD2Ev@Base 4:17.08.0
 _ZN7Akonadi8Protocol19SearchResultCommandaSERKS1_@Base 4:17.08.0
 _ZN7Akonadi8Protocol19StoreSearchResponseC1ERKS1_@Base 4:17.08.0
 _ZN7Akonadi8Protocol19StoreSearchResponseC1Ev@Base 15.07.90
 _ZN7Akonadi8Protocol19StoreSearchResponseC2ERKS1_@Base 4:17.08.0
 _ZN7Akonadi8Protocol19StoreSearchResponseC2Ev@Base 15.07.90
 _ZN7Akonadi8Protocol19StoreSearchResponseD1Ev@Base 4:17.08.0
 _ZN7Akonadi8Protocol19StoreSearchResponseD2Ev@Base 4:17.08.0
 _ZN7Akonadi8Protocol19StoreSearchResponseaSERKS1_@Base 4:17.08.0
 _ZN7Akonadi8Protocol19TransactionResponseC1ERKS1_@Base 4:17.08.0
 _ZN7Akonadi8Protocol19TransactionResponseC1Ev@Base 15.07.90
 _ZN7Akonadi8Protocol19TransactionResponseC2ERKS1_@Base 4:17.08.0
 _ZN7Akonadi8Protocol19TransactionResponseC2Ev@Base 15.07.90
 _ZN7Akonadi8Protocol19TransactionResponseD1Ev@Base 4:17.08.0
 _ZN7Akonadi8Protocol19TransactionResponseD2Ev@Base 4:17.08.0
 _ZN7Akonadi8Protocol19TransactionResponseaSERKS1_@Base 4:17.08.0
 _ZN7Akonadi8Protocol20SearchResultResponseC1ERKS1_@Base 4:17.08.0
 _ZN7Akonadi8Protocol20SearchResultResponseC1Ev@Base 15.07.90
 _ZN7Akonadi8Protocol20SearchResultResponseC2ERKS1_@Base 4:17.08.0
 _ZN7Akonadi8Protocol20SearchResultResponseC2Ev@Base 15.07.90
 _ZN7Akonadi8Protocol20SearchResultResponseD1Ev@Base 4:17.08.0
 _ZN7Akonadi8Protocol20SearchResultResponseD2Ev@Base 4:17.08.0
 _ZN7Akonadi8Protocol20SearchResultResponseaSERKS1_@Base 4:17.08.0
 _ZN7Akonadi8Protocol20StreamPayloadCommandC1ERK10QByteArrayRKNS1_7RequestERK7QString@Base 4:17.08.0
 _ZN7Akonadi8Protocol20StreamPayloadCommandC1ERKS1_@Base 4:17.08.0
 _ZN7Akonadi8Protocol20StreamPayloadCommandC1Ev@Base 15.07.90
 _ZN7Akonadi8Protocol20StreamPayloadCommandC2ERK10QByteArrayRKNS1_7RequestERK7QString@Base 4:17.08.0
 _ZN7Akonadi8Protocol20StreamPayloadCommandC2ERKS1_@Base 4:17.08.0
 _ZN7Akonadi8Protocol20StreamPayloadCommandC2Ev@Base 15.07.90
 _ZN7Akonadi8Protocol20StreamPayloadCommandD1Ev@Base 4:17.08.0
 _ZN7Akonadi8Protocol20StreamPayloadCommandD2Ev@Base 4:17.08.0
 _ZN7Akonadi8Protocol20StreamPayloadCommandaSERKS1_@Base 4:17.08.0
 _ZN7Akonadi8Protocol21CopyCollectionCommandC1ERKNS_5ScopeES4_@Base 15.07.90
 _ZN7Akonadi8Protocol21CopyCollectionCommandC1ERKS1_@Base 4:17.08.0
 _ZN7Akonadi8Protocol21CopyCollectionCommandC1Ev@Base 15.07.90
 _ZN7Akonadi8Protocol21CopyCollectionCommandC2ERKNS_5ScopeES4_@Base 15.07.90
 _ZN7Akonadi8Protocol21CopyCollectionCommandC2ERKS1_@Base 4:17.08.0
 _ZN7Akonadi8Protocol21CopyCollectionCommandC2Ev@Base 15.07.90
 _ZN7Akonadi8Protocol21CopyCollectionCommandD1Ev@Base 4:17.08.0
 _ZN7Akonadi8Protocol21CopyCollectionCommandD2Ev@Base 4:17.08.0
 _ZN7Akonadi8Protocol21CopyCollectionCommandaSERKS1_@Base 4:17.08.0
 _ZN7Akonadi8Protocol21FetchRelationsCommandC1ERKS1_@Base 4:17.08.0
 _ZN7Akonadi8Protocol21FetchRelationsCommandC1ERKxRK7QVectorI10QByteArrayERK7QString@Base 4:17.08.0
 _ZN7Akonadi8Protocol21FetchRelationsCommandC1ERKxS3_RK7QVectorI10QByteArrayERK7QString@Base 4:17.08.0
 _ZN7Akonadi8Protocol21FetchRelationsCommandC1Ev@Base 15.07.90
 _ZN7Akonadi8Protocol21FetchRelationsCommandC2ERKS1_@Base 4:17.08.0
 _ZN7Akonadi8Protocol21FetchRelationsCommandC2ERKxRK7QVectorI10QByteArrayERK7QString@Base 4:17.08.0
 _ZN7Akonadi8Protocol21FetchRelationsCommandC2ERKxS3_RK7QVectorI10QByteArrayERK7QString@Base 4:17.08.0
 _ZN7Akonadi8Protocol21FetchRelationsCommandC2Ev@Base 15.07.90
 _ZN7Akonadi8Protocol21FetchRelationsCommandD1Ev@Base 4:17.08.0
 _ZN7Akonadi8Protocol21FetchRelationsCommandD2Ev@Base 4:17.08.0
 _ZN7Akonadi8Protocol21FetchRelationsCommandaSERKS1_@Base 4:17.08.0
 _ZN7Akonadi8Protocol21ModifyRelationCommandC1ERKS1_@Base 4:17.08.0
 _ZN7Akonadi8Protocol21ModifyRelationCommandC1ERKxS3_RK10QByteArrayS6_@Base 4:17.08.0
 _ZN7Akonadi8Protocol21ModifyRelationCommandC1Ev@Base 15.07.90
 _ZN7Akonadi8Protocol21ModifyRelationCommandC2ERKS1_@Base 4:17.08.0
 _ZN7Akonadi8Protocol21ModifyRelationCommandC2ERKxS3_RK10QByteArrayS6_@Base 4:17.08.0
 _ZN7Akonadi8Protocol21ModifyRelationCommandC2Ev@Base 15.07.90
 _ZN7Akonadi8Protocol21ModifyRelationCommandD1Ev@Base 4:17.08.0
 _ZN7Akonadi8Protocol21ModifyRelationCommandD2Ev@Base 4:17.08.0
 _ZN7Akonadi8Protocol21ModifyRelationCommandaSERKS1_@Base 4:17.08.0
 _ZN7Akonadi8Protocol21MoveCollectionCommandC1ERKNS_5ScopeES4_@Base 15.07.90
 _ZN7Akonadi8Protocol21MoveCollectionCommandC1ERKS1_@Base 4:17.08.0
 _ZN7Akonadi8Protocol21MoveCollectionCommandC1Ev@Base 15.07.90
 _ZN7Akonadi8Protocol21MoveCollectionCommandC2ERKNS_5ScopeES4_@Base 15.07.90
 _ZN7Akonadi8Protocol21MoveCollectionCommandC2ERKS1_@Base 4:17.08.0
 _ZN7Akonadi8Protocol21MoveCollectionCommandC2Ev@Base 15.07.90
 _ZN7Akonadi8Protocol21MoveCollectionCommandD1Ev@Base 4:17.08.0
 _ZN7Akonadi8Protocol21MoveCollectionCommandD2Ev@Base 4:17.08.0
 _ZN7Akonadi8Protocol21MoveCollectionCommandaSERKS1_@Base 4:17.08.0
 _ZN7Akonadi8Protocol21SelectResourceCommandC1ERK7QString@Base 15.07.90
 _ZN7Akonadi8Protocol21SelectResourceCommandC1ERKS1_@Base 4:17.08.0
 _ZN7Akonadi8Protocol21SelectResourceCommandC1Ev@Base 15.07.90
 _ZN7Akonadi8Protocol21SelectResourceCommandC2ERK7QString@Base 15.07.90
 _ZN7Akonadi8Protocol21SelectResourceCommandC2ERKS1_@Base 4:17.08.0
 _ZN7Akonadi8Protocol21SelectResourceCommandC2Ev@Base 15.07.90
 _ZN7Akonadi8Protocol21SelectResourceCommandD1Ev@Base 4:17.08.0
 _ZN7Akonadi8Protocol21SelectResourceCommandD2Ev@Base 4:17.08.0
 _ZN7Akonadi8Protocol21SelectResourceCommandaSERKS1_@Base 4:17.08.0
 _ZN7Akonadi8Protocol21StreamPayloadResponseC1ERK10QByteArrayRKNS0_12PartMetaDataE@Base 15.07.90
 _ZN7Akonadi8Protocol21StreamPayloadResponseC1ERK10QByteArrayRKNS0_12PartMetaDataES4_@Base 15.07.90
 _ZN7Akonadi8Protocol21StreamPayloadResponseC1ERK10QByteArrayS4_@Base 15.07.90
 _ZN7Akonadi8Protocol21StreamPayloadResponseC1ERKS1_@Base 4:17.08.0
 _ZN7Akonadi8Protocol21StreamPayloadResponseC1Ev@Base 15.07.90
 _ZN7Akonadi8Protocol21StreamPayloadResponseC2ERK10QByteArrayRKNS0_12PartMetaDataE@Base 15.07.90
 _ZN7Akonadi8Protocol21StreamPayloadResponseC2ERK10QByteArrayRKNS0_12PartMetaDataES4_@Base 15.07.90
 _ZN7Akonadi8Protocol21StreamPayloadResponseC2ERK10QByteArrayS4_@Base 15.07.90
 _ZN7Akonadi8Protocol21StreamPayloadResponseC2ERKS1_@Base 4:17.08.0
 _ZN7Akonadi8Protocol21StreamPayloadResponseC2Ev@Base 15.07.90
 _ZN7Akonadi8Protocol21StreamPayloadResponseD1Ev@Base 4:17.08.0
 _ZN7Akonadi8Protocol21StreamPayloadResponseD2Ev@Base 4:17.08.0
 _ZN7Akonadi8Protocol21StreamPayloadResponseaSERKS1_@Base 4:17.08.0
 _ZN7Akonadi8Protocol21TagChangeNotificationC1ERKS1_@Base 4:17.08.0
 _ZN7Akonadi8Protocol21TagChangeNotificationC1Ev@Base 4:17.08.0
 _ZN7Akonadi8Protocol21TagChangeNotificationC2ERKS1_@Base 4:17.08.0
 _ZN7Akonadi8Protocol21TagChangeNotificationC2Ev@Base 4:17.08.0
 _ZN7Akonadi8Protocol21TagChangeNotificationD1Ev@Base 4:17.08.0
 _ZN7Akonadi8Protocol21TagChangeNotificationD2Ev@Base 4:17.08.0
 _ZN7Akonadi8Protocol21TagChangeNotificationaSERKS1_@Base 4:17.08.0
 _ZN7Akonadi8Protocol22CopyCollectionResponseC1ERKS1_@Base 4:17.08.0
 _ZN7Akonadi8Protocol22CopyCollectionResponseC1Ev@Base 15.07.90
 _ZN7Akonadi8Protocol22CopyCollectionResponseC2ERKS1_@Base 4:17.08.0
 _ZN7Akonadi8Protocol22CopyCollectionResponseC2Ev@Base 15.07.90
 _ZN7Akonadi8Protocol22CopyCollectionResponseD1Ev@Base 4:17.08.0
 _ZN7Akonadi8Protocol22CopyCollectionResponseD2Ev@Base 4:17.08.0
 _ZN7Akonadi8Protocol22CopyCollectionResponseaSERKS1_@Base 4:17.08.0
 _ZN7Akonadi8Protocol22FetchRelationsResponseC1ERKS1_@Base 4:17.08.0
 _ZN7Akonadi8Protocol22FetchRelationsResponseC1ERKxRK10QByteArrayS3_S6_S6_S6_@Base 4:17.08.0
 _ZN7Akonadi8Protocol22FetchRelationsResponseC1Ev@Base 15.07.90
 _ZN7Akonadi8Protocol22FetchRelationsResponseC2ERKS1_@Base 4:17.08.0
 _ZN7Akonadi8Protocol22FetchRelationsResponseC2ERKxRK10QByteArrayS3_S6_S6_S6_@Base 4:17.08.0
 _ZN7Akonadi8Protocol22FetchRelationsResponseC2Ev@Base 15.07.90
 _ZN7Akonadi8Protocol22FetchRelationsResponseD1Ev@Base 4:17.08.0
 _ZN7Akonadi8Protocol22FetchRelationsResponseD2Ev@Base 4:17.08.0
 _ZN7Akonadi8Protocol22FetchRelationsResponseaSERKS1_@Base 4:17.08.0
 _ZN7Akonadi8Protocol22ItemChangeNotificationC1ERKS1_@Base 4:17.08.0
 _ZN7Akonadi8Protocol22ItemChangeNotificationC1Ev@Base 4:17.08.0
 _ZN7Akonadi8Protocol22ItemChangeNotificationC2ERKS1_@Base 4:17.08.0
 _ZN7Akonadi8Protocol22ItemChangeNotificationC2Ev@Base 4:17.08.0
 _ZN7Akonadi8Protocol22ItemChangeNotificationD1Ev@Base 4:17.08.0
 _ZN7Akonadi8Protocol22ItemChangeNotificationD2Ev@Base 4:17.08.0
 _ZN7Akonadi8Protocol22ItemChangeNotificationaSERKS1_@Base 4:17.08.0
 _ZN7Akonadi8Protocol22ModifyRelationResponseC1ERKS1_@Base 4:17.08.0
 _ZN7Akonadi8Protocol22ModifyRelationResponseC1Ev@Base 15.07.90
 _ZN7Akonadi8Protocol22ModifyRelationResponseC2ERKS1_@Base 4:17.08.0
 _ZN7Akonadi8Protocol22ModifyRelationResponseC2Ev@Base 15.07.90
 _ZN7Akonadi8Protocol22ModifyRelationResponseD1Ev@Base 4:17.08.0
 _ZN7Akonadi8Protocol22ModifyRelationResponseD2Ev@Base 4:17.08.0
 _ZN7Akonadi8Protocol22ModifyRelationResponseaSERKS1_@Base 4:17.08.0
 _ZN7Akonadi8Protocol22MoveCollectionResponseC1ERKS1_@Base 4:17.08.0
 _ZN7Akonadi8Protocol22MoveCollectionResponseC1Ev@Base 15.07.90
 _ZN7Akonadi8Protocol22MoveCollectionResponseC2ERKS1_@Base 4:17.08.0
 _ZN7Akonadi8Protocol22MoveCollectionResponseC2Ev@Base 15.07.90
 _ZN7Akonadi8Protocol22MoveCollectionResponseD1Ev@Base 4:17.08.0
 _ZN7Akonadi8Protocol22MoveCollectionResponseD2Ev@Base 4:17.08.0
 _ZN7Akonadi8Protocol22MoveCollectionResponseaSERKS1_@Base 4:17.08.0
 _ZN7Akonadi8Protocol22RemoveRelationsCommandC1ERKS1_@Base 4:17.08.0
 _ZN7Akonadi8Protocol22RemoveRelationsCommandC1ERKxS3_RK10QByteArray@Base 4:17.08.0
 _ZN7Akonadi8Protocol22RemoveRelationsCommandC1Ev@Base 15.07.90
 _ZN7Akonadi8Protocol22RemoveRelationsCommandC2ERKS1_@Base 4:17.08.0
 _ZN7Akonadi8Protocol22RemoveRelationsCommandC2ERKxS3_RK10QByteArray@Base 4:17.08.0
 _ZN7Akonadi8Protocol22RemoveRelationsCommandC2Ev@Base 15.07.90
 _ZN7Akonadi8Protocol22RemoveRelationsCommandD1Ev@Base 4:17.08.0
 _ZN7Akonadi8Protocol22RemoveRelationsCommandD2Ev@Base 4:17.08.0
 _ZN7Akonadi8Protocol22RemoveRelationsCommandaSERKS1_@Base 4:17.08.0
 _ZN7Akonadi8Protocol22SelectResourceResponseC1ERKS1_@Base 4:17.08.0
 _ZN7Akonadi8Protocol22SelectResourceResponseC1Ev@Base 15.07.90
 _ZN7Akonadi8Protocol22SelectResourceResponseC2ERKS1_@Base 4:17.08.0
 _ZN7Akonadi8Protocol22SelectResourceResponseC2Ev@Base 15.07.90
 _ZN7Akonadi8Protocol22SelectResourceResponseD1Ev@Base 4:17.08.0
 _ZN7Akonadi8Protocol22SelectResourceResponseD2Ev@Base 4:17.08.0
 _ZN7Akonadi8Protocol22SelectResourceResponseaSERKS1_@Base 4:17.08.0
 _ZN7Akonadi8Protocol23CreateCollectionCommandC1ERKS1_@Base 4:17.08.0
 _ZN7Akonadi8Protocol23CreateCollectionCommandC1Ev@Base 15.07.90
 _ZN7Akonadi8Protocol23CreateCollectionCommandC2ERKS1_@Base 4:17.08.0
 _ZN7Akonadi8Protocol23CreateCollectionCommandC2Ev@Base 15.07.90
 _ZN7Akonadi8Protocol23CreateCollectionCommandD1Ev@Base 4:17.08.0
 _ZN7Akonadi8Protocol23CreateCollectionCommandD2Ev@Base 4:17.08.0
 _ZN7Akonadi8Protocol23CreateCollectionCommandaSERKS1_@Base 4:17.08.0
 _ZN7Akonadi8Protocol23DebugChangeNotificationC1ERKS1_@Base 4:17.08.0
 _ZN7Akonadi8Protocol23DebugChangeNotificationC1Ev@Base 4:17.08.0
 _ZN7Akonadi8Protocol23DebugChangeNotificationC2ERKS1_@Base 4:17.08.0
 _ZN7Akonadi8Protocol23DebugChangeNotificationC2Ev@Base 4:17.08.0
 _ZN7Akonadi8Protocol23DebugChangeNotificationD1Ev@Base 4:17.08.0
 _ZN7Akonadi8Protocol23DebugChangeNotificationD2Ev@Base 4:17.08.0
 _ZN7Akonadi8Protocol23DebugChangeNotificationaSERKS1_@Base 4:17.08.0
 _ZN7Akonadi8Protocol23DeleteCollectionCommandC1ERKNS_5ScopeE@Base 15.07.90
 _ZN7Akonadi8Protocol23DeleteCollectionCommandC1ERKS1_@Base 4:17.08.0
 _ZN7Akonadi8Protocol23DeleteCollectionCommandC1Ev@Base 15.07.90
 _ZN7Akonadi8Protocol23DeleteCollectionCommandC2ERKNS_5ScopeE@Base 15.07.90
 _ZN7Akonadi8Protocol23DeleteCollectionCommandC2ERKS1_@Base 4:17.08.0
 _ZN7Akonadi8Protocol23DeleteCollectionCommandC2Ev@Base 15.07.90
 _ZN7Akonadi8Protocol23DeleteCollectionCommandD1Ev@Base 4:17.08.0
 _ZN7Akonadi8Protocol23DeleteCollectionCommandD2Ev@Base 4:17.08.0
 _ZN7Akonadi8Protocol23DeleteCollectionCommandaSERKS1_@Base 4:17.08.0
 _ZN7Akonadi8Protocol23FetchCollectionsCommandC1ERKNS_5ScopeE@Base 15.07.90
 _ZN7Akonadi8Protocol23FetchCollectionsCommandC1ERKS1_@Base 4:17.08.0
 _ZN7Akonadi8Protocol23FetchCollectionsCommandC1Ev@Base 15.07.90
 _ZN7Akonadi8Protocol23FetchCollectionsCommandC2ERKNS_5ScopeE@Base 15.07.90
 _ZN7Akonadi8Protocol23FetchCollectionsCommandC2ERKS1_@Base 4:17.08.0
 _ZN7Akonadi8Protocol23FetchCollectionsCommandC2Ev@Base 15.07.90
 _ZN7Akonadi8Protocol23FetchCollectionsCommandD1Ev@Base 4:17.08.0
 _ZN7Akonadi8Protocol23FetchCollectionsCommandD2Ev@Base 4:17.08.0
 _ZN7Akonadi8Protocol23FetchCollectionsCommandaSERKS1_@Base 4:17.08.0
 _ZN7Akonadi8Protocol23ModifyCollectionCommand10setEnabledERKb@Base 4:17.08.0
 _ZN7Akonadi8Protocol23ModifyCollectionCommand11setParentIdERKx@Base 4:17.08.0
 _ZN7Akonadi8Protocol23ModifyCollectionCommand11setRemoteIdERK7QString@Base 15.07.90
 _ZN7Akonadi8Protocol23ModifyCollectionCommand11setSyncPrefERKNS_8TristateE@Base 4:17.08.0
 _ZN7Akonadi8Protocol23ModifyCollectionCommand12setIndexPrefERKNS_8TristateE@Base 4:17.08.0
 _ZN7Akonadi8Protocol23ModifyCollectionCommand12setMimeTypesERK11QStringList@Base 15.07.90
 _ZN7Akonadi8Protocol23ModifyCollectionCommand13setAttributesERK4QMapI10QByteArrayS3_E@Base 15.07.90
 _ZN7Akonadi8Protocol23ModifyCollectionCommand13setReferencedERKb@Base 4:17.08.0
 _ZN7Akonadi8Protocol23ModifyCollectionCommand14setCachePolicyERKNS0_11CachePolicyE@Base 15.07.90
 _ZN7Akonadi8Protocol23ModifyCollectionCommand14setDisplayPrefERKNS_8TristateE@Base 4:17.08.0
 _ZN7Akonadi8Protocol23ModifyCollectionCommand17setRemoteRevisionERK7QString@Base 15.07.90
 _ZN7Akonadi8Protocol23ModifyCollectionCommand20setRemovedAttributesERK4QSetI10QByteArrayE@Base 15.07.90
 _ZN7Akonadi8Protocol23ModifyCollectionCommand24setPersistentSearchQueryERK7QString@Base 15.07.90
 _ZN7Akonadi8Protocol23ModifyCollectionCommand25setPersistentSearchRemoteERKb@Base 4:17.08.0
 _ZN7Akonadi8Protocol23ModifyCollectionCommand28setPersistentSearchRecursiveERKb@Base 4:17.08.0
 _ZN7Akonadi8Protocol23ModifyCollectionCommand30setPersistentSearchCollectionsERK7QVectorIxE@Base 15.07.90
 _ZN7Akonadi8Protocol23ModifyCollectionCommand7setNameERK7QString@Base 15.07.90
 _ZN7Akonadi8Protocol23ModifyCollectionCommandC1ERKNS_5ScopeE@Base 15.07.90
 _ZN7Akonadi8Protocol23ModifyCollectionCommandC1ERKS1_@Base 4:17.08.0
 _ZN7Akonadi8Protocol23ModifyCollectionCommandC1Ev@Base 15.07.90
 _ZN7Akonadi8Protocol23ModifyCollectionCommandC2ERKNS_5ScopeE@Base 15.07.90
 _ZN7Akonadi8Protocol23ModifyCollectionCommandC2ERKS1_@Base 4:17.08.0
 _ZN7Akonadi8Protocol23ModifyCollectionCommandC2Ev@Base 15.07.90
 _ZN7Akonadi8Protocol23ModifyCollectionCommandD1Ev@Base 4:17.08.0
 _ZN7Akonadi8Protocol23ModifyCollectionCommandD2Ev@Base 4:17.08.0
 _ZN7Akonadi8Protocol23ModifyCollectionCommandaSERKS1_@Base 4:17.08.0
 _ZN7Akonadi8Protocol23RemoveRelationsResponseC1ERKS1_@Base 4:17.08.0
 _ZN7Akonadi8Protocol23RemoveRelationsResponseC1Ev@Base 15.07.90
 _ZN7Akonadi8Protocol23RemoveRelationsResponseC2ERKS1_@Base 4:17.08.0
 _ZN7Akonadi8Protocol23RemoveRelationsResponseC2Ev@Base 15.07.90
 _ZN7Akonadi8Protocol23RemoveRelationsResponseD1Ev@Base 4:17.08.0
 _ZN7Akonadi8Protocol23RemoveRelationsResponseD2Ev@Base 4:17.08.0
 _ZN7Akonadi8Protocol23RemoveRelationsResponseaSERKS1_@Base 4:17.08.0
 _ZN7Akonadi8Protocol24CreateCollectionResponseC1ERKS1_@Base 4:17.08.0
 _ZN7Akonadi8Protocol24CreateCollectionResponseC1Ev@Base 15.07.90
 _ZN7Akonadi8Protocol24CreateCollectionResponseC2ERKS1_@Base 4:17.08.0
 _ZN7Akonadi8Protocol24CreateCollectionResponseC2Ev@Base 15.07.90
 _ZN7Akonadi8Protocol24CreateCollectionResponseD1Ev@Base 4:17.08.0
 _ZN7Akonadi8Protocol24CreateCollectionResponseD2Ev@Base 4:17.08.0
 _ZN7Akonadi8Protocol24CreateCollectionResponseaSERKS1_@Base 4:17.08.0
 _ZN7Akonadi8Protocol24DeleteCollectionResponseC1ERKS1_@Base 4:17.08.0
 _ZN7Akonadi8Protocol24DeleteCollectionResponseC1Ev@Base 15.07.90
 _ZN7Akonadi8Protocol24DeleteCollectionResponseC2ERKS1_@Base 4:17.08.0
 _ZN7Akonadi8Protocol24DeleteCollectionResponseC2Ev@Base 15.07.90
 _ZN7Akonadi8Protocol24DeleteCollectionResponseD1Ev@Base 4:17.08.0
 _ZN7Akonadi8Protocol24DeleteCollectionResponseD2Ev@Base 4:17.08.0
 _ZN7Akonadi8Protocol24DeleteCollectionResponseaSERKS1_@Base 4:17.08.0
 _ZN7Akonadi8Protocol24FetchCollectionsResponseC1ERKS1_@Base 4:17.08.0
 _ZN7Akonadi8Protocol24FetchCollectionsResponseC1ERKx@Base 4:17.08.0
 _ZN7Akonadi8Protocol24FetchCollectionsResponseC1Ev@Base 15.07.90
 _ZN7Akonadi8Protocol24FetchCollectionsResponseC2ERKS1_@Base 4:17.08.0
 _ZN7Akonadi8Protocol24FetchCollectionsResponseC2ERKx@Base 4:17.08.0
 _ZN7Akonadi8Protocol24FetchCollectionsResponseC2Ev@Base 15.07.90
 _ZN7Akonadi8Protocol24FetchCollectionsResponseD1Ev@Base 4:17.08.0
 _ZN7Akonadi8Protocol24FetchCollectionsResponseD2Ev@Base 4:17.08.0
 _ZN7Akonadi8Protocol24FetchCollectionsResponseaSERKS1_@Base 4:17.08.0
 _ZN7Akonadi8Protocol24ModifyCollectionResponseC1ERKS1_@Base 4:17.08.0
 _ZN7Akonadi8Protocol24ModifyCollectionResponseC1Ev@Base 15.07.90
 _ZN7Akonadi8Protocol24ModifyCollectionResponseC2ERKS1_@Base 4:17.08.0
 _ZN7Akonadi8Protocol24ModifyCollectionResponseC2Ev@Base 15.07.90
 _ZN7Akonadi8Protocol24ModifyCollectionResponseD1Ev@Base 4:17.08.0
 _ZN7Akonadi8Protocol24ModifyCollectionResponseD2Ev@Base 4:17.08.0
 _ZN7Akonadi8Protocol24ModifyCollectionResponseaSERKS1_@Base 4:17.08.0
 _ZN7Akonadi8Protocol25CreateSubscriptionCommandC1ERK10QByteArrayS4_@Base 4:17.08.0
 _ZN7Akonadi8Protocol25CreateSubscriptionCommandC1ERKS1_@Base 4:17.08.0
 _ZN7Akonadi8Protocol25CreateSubscriptionCommandC1Ev@Base 4:17.08.0
 _ZN7Akonadi8Protocol25CreateSubscriptionCommandC2ERK10QByteArrayS4_@Base 4:17.08.0
 _ZN7Akonadi8Protocol25CreateSubscriptionCommandC2ERKS1_@Base 4:17.08.0
 _ZN7Akonadi8Protocol25CreateSubscriptionCommandC2Ev@Base 4:17.08.0
 _ZN7Akonadi8Protocol25CreateSubscriptionCommandD1Ev@Base 4:17.08.0
 _ZN7Akonadi8Protocol25CreateSubscriptionCommandD2Ev@Base 4:17.08.0
 _ZN7Akonadi8Protocol25CreateSubscriptionCommandaSERKS1_@Base 4:17.08.0
 _ZN7Akonadi8Protocol25ModifySubscriptionCommand14setIsExclusiveERKb@Base 4:17.08.0
 _ZN7Akonadi8Protocol25ModifySubscriptionCommand15setAllMonitoredERKb@Base 4:17.08.0
 _ZN7Akonadi8Protocol25ModifySubscriptionCommand17stopMonitoringTagERKx@Base 4:17.08.0
 _ZN7Akonadi8Protocol25ModifySubscriptionCommand18startMonitoringTagERKx@Base 4:17.08.0
 _ZN7Akonadi8Protocol25ModifySubscriptionCommand18stopMonitoringItemERKx@Base 4:17.08.0
 _ZN7Akonadi8Protocol25ModifySubscriptionCommand18stopMonitoringTypeERKNS1_10ChangeTypeE@Base 4:17.08.0
 _ZN7Akonadi8Protocol25ModifySubscriptionCommand19startMonitoringItemERKx@Base 4:17.08.0
 _ZN7Akonadi8Protocol25ModifySubscriptionCommand19startMonitoringTypeERKNS1_10ChangeTypeE@Base 4:17.08.0
 _ZN7Akonadi8Protocol25ModifySubscriptionCommand19stopIgnoringSessionERK10QByteArray@Base 4:17.08.0
 _ZN7Akonadi8Protocol25ModifySubscriptionCommand20startIgnoringSessionERK10QByteArray@Base 4:17.08.0
 _ZN7Akonadi8Protocol25ModifySubscriptionCommand22stopMonitoringMimeTypeERK7QString@Base 4:17.08.0
 _ZN7Akonadi8Protocol25ModifySubscriptionCommand22stopMonitoringResourceERK10QByteArray@Base 4:17.08.0
 _ZN7Akonadi8Protocol25ModifySubscriptionCommand23startMonitoringMimeTypeERK7QString@Base 4:17.08.0
 _ZN7Akonadi8Protocol25ModifySubscriptionCommand23startMonitoringResourceERK10QByteArray@Base 4:17.08.0
 _ZN7Akonadi8Protocol25ModifySubscriptionCommand24stopMonitoringCollectionERKx@Base 4:17.08.0
 _ZN7Akonadi8Protocol25ModifySubscriptionCommand25startMonitoringCollectionERKx@Base 4:17.08.0
 _ZN7Akonadi8Protocol25ModifySubscriptionCommandC1ERKS1_@Base 4:17.08.0
 _ZN7Akonadi8Protocol25ModifySubscriptionCommandC1Ev@Base 4:17.08.0
 _ZN7Akonadi8Protocol25ModifySubscriptionCommandC2ERKS1_@Base 4:17.08.0
 _ZN7Akonadi8Protocol25ModifySubscriptionCommandC2Ev@Base 4:17.08.0
 _ZN7Akonadi8Protocol25ModifySubscriptionCommandD1Ev@Base 4:17.08.0
 _ZN7Akonadi8Protocol25ModifySubscriptionCommandD2Ev@Base 4:17.08.0
 _ZN7Akonadi8Protocol25ModifySubscriptionCommandaSERKS1_@Base 4:17.08.0
 _ZN7Akonadi8Protocol26CreateSubscriptionResponseC1ERKS1_@Base 4:17.08.0
 _ZN7Akonadi8Protocol26CreateSubscriptionResponseC1Ev@Base 4:17.08.0
 _ZN7Akonadi8Protocol26CreateSubscriptionResponseC2ERKS1_@Base 4:17.08.0
 _ZN7Akonadi8Protocol26CreateSubscriptionResponseC2Ev@Base 4:17.08.0
 _ZN7Akonadi8Protocol26CreateSubscriptionResponseD1Ev@Base 4:17.08.0
 _ZN7Akonadi8Protocol26CreateSubscriptionResponseD2Ev@Base 4:17.08.0
 _ZN7Akonadi8Protocol26CreateSubscriptionResponseaSERKS1_@Base 4:17.08.0
 _ZN7Akonadi8Protocol26ModifySubscriptionResponseC1ERKS1_@Base 4:17.08.0
 _ZN7Akonadi8Protocol26ModifySubscriptionResponseC1Ev@Base 4:17.08.0
 _ZN7Akonadi8Protocol26ModifySubscriptionResponseC2ERKS1_@Base 4:17.08.0
 _ZN7Akonadi8Protocol26ModifySubscriptionResponseC2Ev@Base 4:17.08.0
 _ZN7Akonadi8Protocol26ModifySubscriptionResponseD1Ev@Base 4:17.08.0
 _ZN7Akonadi8Protocol26ModifySubscriptionResponseD2Ev@Base 4:17.08.0
 _ZN7Akonadi8Protocol26ModifySubscriptionResponseaSERKS1_@Base 4:17.08.0
 _ZN7Akonadi8Protocol26RelationChangeNotificationC1ERKS1_@Base 4:17.08.0
 _ZN7Akonadi8Protocol26RelationChangeNotificationC1Ev@Base 4:17.08.0
 _ZN7Akonadi8Protocol26RelationChangeNotificationC2ERKS1_@Base 4:17.08.0
 _ZN7Akonadi8Protocol26RelationChangeNotificationC2Ev@Base 4:17.08.0
 _ZN7Akonadi8Protocol26RelationChangeNotificationD1Ev@Base 4:17.08.0
 _ZN7Akonadi8Protocol26RelationChangeNotificationD2Ev@Base 4:17.08.0
 _ZN7Akonadi8Protocol26RelationChangeNotificationaSERKS1_@Base 4:17.08.0
 _ZN7Akonadi8Protocol27FetchCollectionStatsCommandC1ERKNS_5ScopeE@Base 15.07.90
 _ZN7Akonadi8Protocol27FetchCollectionStatsCommandC1ERKS1_@Base 4:17.08.0
 _ZN7Akonadi8Protocol27FetchCollectionStatsCommandC1Ev@Base 15.07.90
 _ZN7Akonadi8Protocol27FetchCollectionStatsCommandC2ERKNS_5ScopeE@Base 15.07.90
 _ZN7Akonadi8Protocol27FetchCollectionStatsCommandC2ERKS1_@Base 4:17.08.0
 _ZN7Akonadi8Protocol27FetchCollectionStatsCommandC2Ev@Base 15.07.90
 _ZN7Akonadi8Protocol27FetchCollectionStatsCommandD1Ev@Base 4:17.08.0
 _ZN7Akonadi8Protocol27FetchCollectionStatsCommandD2Ev@Base 4:17.08.0
 _ZN7Akonadi8Protocol27FetchCollectionStatsCommandaSERKS1_@Base 4:17.08.0
 _ZN7Akonadi8Protocol28CollectionChangeNotificationC1ERKS1_@Base 4:17.08.0
 _ZN7Akonadi8Protocol28CollectionChangeNotificationC1Ev@Base 4:17.08.0
 _ZN7Akonadi8Protocol28CollectionChangeNotificationC2ERKS1_@Base 4:17.08.0
 _ZN7Akonadi8Protocol28CollectionChangeNotificationC2Ev@Base 4:17.08.0
 _ZN7Akonadi8Protocol28CollectionChangeNotificationD1Ev@Base 4:17.08.0
 _ZN7Akonadi8Protocol28CollectionChangeNotificationD2Ev@Base 4:17.08.0
 _ZN7Akonadi8Protocol28CollectionChangeNotificationaSERKS1_@Base 4:17.08.0
 _ZN7Akonadi8Protocol28FetchCollectionStatsResponseC1ERKS1_@Base 4:17.08.0
 _ZN7Akonadi8Protocol28FetchCollectionStatsResponseC1ERKxS3_S3_@Base 4:17.08.0
 _ZN7Akonadi8Protocol28FetchCollectionStatsResponseC1Ev@Base 15.07.90
 _ZN7Akonadi8Protocol28FetchCollectionStatsResponseC2ERKS1_@Base 4:17.08.0
 _ZN7Akonadi8Protocol28FetchCollectionStatsResponseC2ERKxS3_S3_@Base 4:17.08.0
 _ZN7Akonadi8Protocol28FetchCollectionStatsResponseC2Ev@Base 15.07.90
 _ZN7Akonadi8Protocol28FetchCollectionStatsResponseD1Ev@Base 4:17.08.0
 _ZN7Akonadi8Protocol28FetchCollectionStatsResponseD2Ev@Base 4:17.08.0
 _ZN7Akonadi8Protocol28FetchCollectionStatsResponseaSERKS1_@Base 4:17.08.0
 _ZN7Akonadi8Protocol30SubscriptionChangeNotificationC1ERKS1_@Base 4:17.08.0
 _ZN7Akonadi8Protocol30SubscriptionChangeNotificationC1Ev@Base 4:17.08.0
 _ZN7Akonadi8Protocol30SubscriptionChangeNotificationC2ERKS1_@Base 4:17.08.0
 _ZN7Akonadi8Protocol30SubscriptionChangeNotificationC2Ev@Base 4:17.08.0
 _ZN7Akonadi8Protocol30SubscriptionChangeNotificationD1Ev@Base 4:17.08.0
 _ZN7Akonadi8Protocol30SubscriptionChangeNotificationD2Ev@Base 4:17.08.0
 _ZN7Akonadi8Protocol30SubscriptionChangeNotificationaSERKS1_@Base 4:17.08.0
 _ZN7Akonadi8Protocol7CommandC1ERKS1_@Base 15.07.90
 _ZN7Akonadi8Protocol7CommandC1Eh@Base 4:17.08.0
 _ZN7Akonadi8Protocol7CommandC1Ev@Base 15.07.90
 _ZN7Akonadi8Protocol7CommandC2ERKS1_@Base 15.07.90
 _ZN7Akonadi8Protocol7CommandC2Eh@Base 4:17.08.0
 _ZN7Akonadi8Protocol7CommandC2Ev@Base 15.07.90
 _ZN7Akonadi8Protocol7CommandD1Ev@Base 15.07.90
 _ZN7Akonadi8Protocol7CommandD2Ev@Base 15.07.90
 _ZN7Akonadi8Protocol7CommandaSERKS1_@Base 15.07.90
 _ZN7Akonadi8Protocol7Factory7commandENS0_7Command4TypeE@Base 15.07.90
 _ZN7Akonadi8Protocol7Factory8responseENS0_7Command4TypeE@Base 15.07.90
 _ZN7Akonadi8Protocol7versionEv@Base 15.12.0
 _ZN7Akonadi8Protocol8AncestorC1ERKS1_@Base 15.07.90
 _ZN7Akonadi8Protocol8AncestorC1ERKxRK7QString@Base 4:17.08.0
 _ZN7Akonadi8Protocol8AncestorC1Ev@Base 15.07.90
 _ZN7Akonadi8Protocol8AncestorC2ERKS1_@Base 15.07.90
 _ZN7Akonadi8Protocol8AncestorC2ERKxRK7QString@Base 4:17.08.0
 _ZN7Akonadi8Protocol8AncestorC2Ev@Base 15.07.90
 _ZN7Akonadi8Protocol8AncestorD1Ev@Base 15.07.90
 _ZN7Akonadi8Protocol8AncestorD2Ev@Base 15.07.90
 _ZN7Akonadi8Protocol8AncestoraSERKS1_@Base 15.07.90
 _ZN7Akonadi8Protocol8ResponseC1ENS0_7Command4TypeE@Base 4:17.08.0
 _ZN7Akonadi8Protocol8ResponseC1ERKS1_@Base 4:17.08.0
 _ZN7Akonadi8Protocol8ResponseC1Ev@Base 15.07.90
 _ZN7Akonadi8Protocol8ResponseC2ENS0_7Command4TypeE@Base 4:17.08.0
 _ZN7Akonadi8Protocol8ResponseC2ERKS1_@Base 4:17.08.0
 _ZN7Akonadi8Protocol8ResponseC2Ev@Base 15.07.90
 _ZN7Akonadi8Protocol8ResponseaSERKS1_@Base 4:17.08.0
 _ZN7Akonadi8Protocol9serializeEP9QIODeviceRK14QSharedPointerINS0_7CommandEE@Base 4:17.08.0
 _ZN7Akonadi8ProtocollsE6QDebugRKNS0_10FetchScopeE@Base 4:17.08.0
 _ZN7Akonadi8ProtocollsE6QDebugRKNS0_11CachePolicyE@Base 4:17.08.0
 _ZN7Akonadi8ProtocollsE6QDebugRKNS0_12LoginCommandE@Base 4:17.08.0
 _ZN7Akonadi8ProtocollsE6QDebugRKNS0_12PartMetaDataE@Base 4:17.08.0
 _ZN7Akonadi8ProtocollsE6QDebugRKNS0_12ScopeContextE@Base 4:17.08.0
 _ZN7Akonadi8ProtocollsE6QDebugRKNS0_13HelloResponseE@Base 4:17.08.0
 _ZN7Akonadi8ProtocollsE6QDebugRKNS0_13LoginResponseE@Base 4:17.08.0
 _ZN7Akonadi8ProtocollsE6QDebugRKNS0_13LogoutCommandE@Base 4:17.08.0
 _ZN7Akonadi8ProtocollsE6QDebugRKNS0_13SearchCommandE@Base 4:17.08.0
 _ZN7Akonadi8ProtocollsE6QDebugRKNS0_14LogoutResponseE@Base 4:17.08.0
 _ZN7Akonadi8ProtocollsE6QDebugRKNS0_14SearchResponseE@Base 4:17.08.0
 _ZN7Akonadi8ProtocollsE6QDebugRKNS0_16CopyItemsCommandE@Base 4:17.08.0
 _ZN7Akonadi8ProtocollsE6QDebugRKNS0_16CreateTagCommandE@Base 4:17.08.0
 _ZN7Akonadi8ProtocollsE6QDebugRKNS0_16DeleteTagCommandE@Base 4:17.08.0
 _ZN7Akonadi8ProtocollsE6QDebugRKNS0_16FetchTagsCommandE@Base 4:17.08.0
 _ZN7Akonadi8ProtocollsE6QDebugRKNS0_16LinkItemsCommandE@Base 4:17.08.0
 _ZN7Akonadi8ProtocollsE6QDebugRKNS0_16ModifyTagCommandE@Base 4:17.08.0
 _ZN7Akonadi8ProtocollsE6QDebugRKNS0_16MoveItemsCommandE@Base 4:17.08.0
 _ZN7Akonadi8ProtocollsE6QDebugRKNS0_17CopyItemsResponseE@Base 4:17.08.0
 _ZN7Akonadi8ProtocollsE6QDebugRKNS0_17CreateItemCommandE@Base 4:17.08.0
 _ZN7Akonadi8ProtocollsE6QDebugRKNS0_17CreateTagResponseE@Base 4:17.08.0
 _ZN7Akonadi8ProtocollsE6QDebugRKNS0_17DeleteTagResponseE@Base 4:17.08.0
 _ZN7Akonadi8ProtocollsE6QDebugRKNS0_17FetchItemsCommandE@Base 4:17.08.0
 _ZN7Akonadi8ProtocollsE6QDebugRKNS0_17FetchTagsResponseE@Base 4:17.08.0
 _ZN7Akonadi8ProtocollsE6QDebugRKNS0_17LinkItemsResponseE@Base 4:17.08.0
 _ZN7Akonadi8ProtocollsE6QDebugRKNS0_17ModifyTagResponseE@Base 4:17.08.0
 _ZN7Akonadi8ProtocollsE6QDebugRKNS0_17MoveItemsResponseE@Base 4:17.08.0
 _ZN7Akonadi8ProtocollsE6QDebugRKNS0_18ChangeNotificationE@Base 4:17.08.0
 _ZN7Akonadi8ProtocollsE6QDebugRKNS0_18CreateItemResponseE@Base 4:17.08.0
 _ZN7Akonadi8ProtocollsE6QDebugRKNS0_18DeleteItemsCommandE@Base 4:17.08.0
 _ZN7Akonadi8ProtocollsE6QDebugRKNS0_18FetchItemsResponseE@Base 4:17.08.0
 _ZN7Akonadi8ProtocollsE6QDebugRKNS0_18ModifyItemsCommandE@Base 4:17.08.0
 _ZN7Akonadi8ProtocollsE6QDebugRKNS0_18StoreSearchCommandE@Base 4:17.08.0
 _ZN7Akonadi8ProtocollsE6QDebugRKNS0_18TransactionCommandE@Base 4:17.08.0
 _ZN7Akonadi8ProtocollsE6QDebugRKNS0_19DeleteItemsResponseE@Base 4:17.08.0
 _ZN7Akonadi8ProtocollsE6QDebugRKNS0_19ModifyItemsResponseE@Base 4:17.08.0
 _ZN7Akonadi8ProtocollsE6QDebugRKNS0_19SearchResultCommandE@Base 4:17.08.0
 _ZN7Akonadi8ProtocollsE6QDebugRKNS0_19StoreSearchResponseE@Base 4:17.08.0
 _ZN7Akonadi8ProtocollsE6QDebugRKNS0_19TransactionResponseE@Base 4:17.08.0
 _ZN7Akonadi8ProtocollsE6QDebugRKNS0_20SearchResultResponseE@Base 4:17.08.0
 _ZN7Akonadi8ProtocollsE6QDebugRKNS0_20StreamPayloadCommandE@Base 4:17.08.0
 _ZN7Akonadi8ProtocollsE6QDebugRKNS0_21CopyCollectionCommandE@Base 4:17.08.0
 _ZN7Akonadi8ProtocollsE6QDebugRKNS0_21FetchRelationsCommandE@Base 4:17.08.0
 _ZN7Akonadi8ProtocollsE6QDebugRKNS0_21ModifyRelationCommandE@Base 4:17.08.0
 _ZN7Akonadi8ProtocollsE6QDebugRKNS0_21MoveCollectionCommandE@Base 4:17.08.0
 _ZN7Akonadi8ProtocollsE6QDebugRKNS0_21SelectResourceCommandE@Base 4:17.08.0
 _ZN7Akonadi8ProtocollsE6QDebugRKNS0_21StreamPayloadResponseE@Base 4:17.08.0
 _ZN7Akonadi8ProtocollsE6QDebugRKNS0_21TagChangeNotificationE@Base 4:17.08.0
 _ZN7Akonadi8ProtocollsE6QDebugRKNS0_22CopyCollectionResponseE@Base 4:17.08.0
 _ZN7Akonadi8ProtocollsE6QDebugRKNS0_22FetchRelationsResponseE@Base 4:17.08.0
 _ZN7Akonadi8ProtocollsE6QDebugRKNS0_22ItemChangeNotificationE@Base 4:17.08.0
 _ZN7Akonadi8ProtocollsE6QDebugRKNS0_22ModifyRelationResponseE@Base 4:17.08.0
 _ZN7Akonadi8ProtocollsE6QDebugRKNS0_22MoveCollectionResponseE@Base 4:17.08.0
 _ZN7Akonadi8ProtocollsE6QDebugRKNS0_22RemoveRelationsCommandE@Base 4:17.08.0
 _ZN7Akonadi8ProtocollsE6QDebugRKNS0_22SelectResourceResponseE@Base 4:17.08.0
 _ZN7Akonadi8ProtocollsE6QDebugRKNS0_23CreateCollectionCommandE@Base 4:17.08.0
 _ZN7Akonadi8ProtocollsE6QDebugRKNS0_23DebugChangeNotificationE@Base 4:17.08.0
 _ZN7Akonadi8ProtocollsE6QDebugRKNS0_23DeleteCollectionCommandE@Base 4:17.08.0
 _ZN7Akonadi8ProtocollsE6QDebugRKNS0_23FetchCollectionsCommandE@Base 4:17.08.0
 _ZN7Akonadi8ProtocollsE6QDebugRKNS0_23ModifyCollectionCommandE@Base 4:17.08.0
 _ZN7Akonadi8ProtocollsE6QDebugRKNS0_23RemoveRelationsResponseE@Base 4:17.08.0
 _ZN7Akonadi8ProtocollsE6QDebugRKNS0_24CreateCollectionResponseE@Base 4:17.08.0
 _ZN7Akonadi8ProtocollsE6QDebugRKNS0_24DeleteCollectionResponseE@Base 4:17.08.0
 _ZN7Akonadi8ProtocollsE6QDebugRKNS0_24FetchCollectionsResponseE@Base 4:17.08.0
 _ZN7Akonadi8ProtocollsE6QDebugRKNS0_24ModifyCollectionResponseE@Base 4:17.08.0
 _ZN7Akonadi8ProtocollsE6QDebugRKNS0_25CreateSubscriptionCommandE@Base 4:17.08.0
 _ZN7Akonadi8ProtocollsE6QDebugRKNS0_25ModifySubscriptionCommandE@Base 4:17.08.0
 _ZN7Akonadi8ProtocollsE6QDebugRKNS0_26CreateSubscriptionResponseE@Base 4:17.08.0
 _ZN7Akonadi8ProtocollsE6QDebugRKNS0_26ModifySubscriptionResponseE@Base 4:17.08.0
 _ZN7Akonadi8ProtocollsE6QDebugRKNS0_26RelationChangeNotificationE@Base 4:17.08.0
 _ZN7Akonadi8ProtocollsE6QDebugRKNS0_27FetchCollectionStatsCommandE@Base 4:17.08.0
 _ZN7Akonadi8ProtocollsE6QDebugRKNS0_28CollectionChangeNotificationE@Base 4:17.08.0
 _ZN7Akonadi8ProtocollsE6QDebugRKNS0_28FetchCollectionStatsResponseE@Base 4:17.08.0
 _ZN7Akonadi8ProtocollsE6QDebugRKNS0_30SubscriptionChangeNotificationE@Base 4:17.08.0
 _ZN7Akonadi8ProtocollsE6QDebugRKNS0_7CommandE@Base 4:17.08.0
 _ZN7Akonadi8ProtocollsE6QDebugRKNS0_8AncestorE@Base 4:17.08.0
 _ZN7Akonadi8ProtocollsE6QDebugRKNS0_8ResponseE@Base 4:17.08.0
 _ZN7Akonadi8ProtocollsERNS0_10DataStreamERKNS0_10FetchScopeE@Base 4:17.08.0
 _ZN7Akonadi8ProtocollsERNS0_10DataStreamERKNS0_11CachePolicyE@Base 4:17.08.0
 _ZN7Akonadi8ProtocollsERNS0_10DataStreamERKNS0_12LoginCommandE@Base 4:17.08.0
 _ZN7Akonadi8ProtocollsERNS0_10DataStreamERKNS0_12PartMetaDataE@Base 4:17.08.0
 _ZN7Akonadi8ProtocollsERNS0_10DataStreamERKNS0_12ScopeContextE@Base 4:17.08.0
 _ZN7Akonadi8ProtocollsERNS0_10DataStreamERKNS0_13HelloResponseE@Base 4:17.08.0
 _ZN7Akonadi8ProtocollsERNS0_10DataStreamERKNS0_13LoginResponseE@Base 4:17.08.0
 _ZN7Akonadi8ProtocollsERNS0_10DataStreamERKNS0_13LogoutCommandE@Base 4:17.08.0
 _ZN7Akonadi8ProtocollsERNS0_10DataStreamERKNS0_13SearchCommandE@Base 4:17.08.0
 _ZN7Akonadi8ProtocollsERNS0_10DataStreamERKNS0_14LogoutResponseE@Base 4:17.08.0
 _ZN7Akonadi8ProtocollsERNS0_10DataStreamERKNS0_14SearchResponseE@Base 4:17.08.0
 _ZN7Akonadi8ProtocollsERNS0_10DataStreamERKNS0_16CopyItemsCommandE@Base 4:17.08.0
 _ZN7Akonadi8ProtocollsERNS0_10DataStreamERKNS0_16CreateTagCommandE@Base 4:17.08.0
 _ZN7Akonadi8ProtocollsERNS0_10DataStreamERKNS0_16DeleteTagCommandE@Base 4:17.08.0
 _ZN7Akonadi8ProtocollsERNS0_10DataStreamERKNS0_16FetchTagsCommandE@Base 4:17.08.0
 _ZN7Akonadi8ProtocollsERNS0_10DataStreamERKNS0_16LinkItemsCommandE@Base 4:17.08.0
 _ZN7Akonadi8ProtocollsERNS0_10DataStreamERKNS0_16ModifyTagCommandE@Base 4:17.08.0
 _ZN7Akonadi8ProtocollsERNS0_10DataStreamERKNS0_16MoveItemsCommandE@Base 4:17.08.0
 _ZN7Akonadi8ProtocollsERNS0_10DataStreamERKNS0_17CopyItemsResponseE@Base 4:17.08.0
 _ZN7Akonadi8ProtocollsERNS0_10DataStreamERKNS0_17CreateItemCommandE@Base 4:17.08.0
 _ZN7Akonadi8ProtocollsERNS0_10DataStreamERKNS0_17CreateTagResponseE@Base 4:17.08.0
 _ZN7Akonadi8ProtocollsERNS0_10DataStreamERKNS0_17DeleteTagResponseE@Base 4:17.08.0
 _ZN7Akonadi8ProtocollsERNS0_10DataStreamERKNS0_17FetchItemsCommandE@Base 4:17.08.0
 _ZN7Akonadi8ProtocollsERNS0_10DataStreamERKNS0_17FetchTagsResponseE@Base 4:17.08.0
 _ZN7Akonadi8ProtocollsERNS0_10DataStreamERKNS0_17LinkItemsResponseE@Base 4:17.08.0
 _ZN7Akonadi8ProtocollsERNS0_10DataStreamERKNS0_17ModifyTagResponseE@Base 4:17.08.0
 _ZN7Akonadi8ProtocollsERNS0_10DataStreamERKNS0_17MoveItemsResponseE@Base 4:17.08.0
 _ZN7Akonadi8ProtocollsERNS0_10DataStreamERKNS0_18ChangeNotification4ItemE@Base 4:17.08.0
 _ZN7Akonadi8ProtocollsERNS0_10DataStreamERKNS0_18ChangeNotification8RelationE@Base 4:17.08.0
 _ZN7Akonadi8ProtocollsERNS0_10DataStreamERKNS0_18ChangeNotificationE@Base 4:17.08.0
 _ZN7Akonadi8ProtocollsERNS0_10DataStreamERKNS0_18CreateItemResponseE@Base 4:17.08.0
 _ZN7Akonadi8ProtocollsERNS0_10DataStreamERKNS0_18DeleteItemsCommandE@Base 4:17.08.0
 _ZN7Akonadi8ProtocollsERNS0_10DataStreamERKNS0_18FetchItemsResponseE@Base 4:17.08.0
 _ZN7Akonadi8ProtocollsERNS0_10DataStreamERKNS0_18ModifyItemsCommandE@Base 4:17.08.0
 _ZN7Akonadi8ProtocollsERNS0_10DataStreamERKNS0_18StoreSearchCommandE@Base 4:17.08.0
 _ZN7Akonadi8ProtocollsERNS0_10DataStreamERKNS0_18TransactionCommandE@Base 4:17.08.0
 _ZN7Akonadi8ProtocollsERNS0_10DataStreamERKNS0_19DeleteItemsResponseE@Base 4:17.08.0
 _ZN7Akonadi8ProtocollsERNS0_10DataStreamERKNS0_19ModifyItemsResponseE@Base 4:17.08.0
 _ZN7Akonadi8ProtocollsERNS0_10DataStreamERKNS0_19SearchResultCommandE@Base 4:17.08.0
 _ZN7Akonadi8ProtocollsERNS0_10DataStreamERKNS0_19StoreSearchResponseE@Base 4:17.08.0
 _ZN7Akonadi8ProtocollsERNS0_10DataStreamERKNS0_19TransactionResponseE@Base 4:17.08.0
 _ZN7Akonadi8ProtocollsERNS0_10DataStreamERKNS0_20SearchResultResponseE@Base 4:17.08.0
 _ZN7Akonadi8ProtocollsERNS0_10DataStreamERKNS0_20StreamPayloadCommandE@Base 4:17.08.0
 _ZN7Akonadi8ProtocollsERNS0_10DataStreamERKNS0_21CopyCollectionCommandE@Base 4:17.08.0
 _ZN7Akonadi8ProtocollsERNS0_10DataStreamERKNS0_21FetchRelationsCommandE@Base 4:17.08.0
 _ZN7Akonadi8ProtocollsERNS0_10DataStreamERKNS0_21ModifyRelationCommandE@Base 4:17.08.0
 _ZN7Akonadi8ProtocollsERNS0_10DataStreamERKNS0_21MoveCollectionCommandE@Base 4:17.08.0
 _ZN7Akonadi8ProtocollsERNS0_10DataStreamERKNS0_21SelectResourceCommandE@Base 4:17.08.0
 _ZN7Akonadi8ProtocollsERNS0_10DataStreamERKNS0_21StreamPayloadResponseE@Base 4:17.08.0
 _ZN7Akonadi8ProtocollsERNS0_10DataStreamERKNS0_21TagChangeNotificationE@Base 4:17.08.0
 _ZN7Akonadi8ProtocollsERNS0_10DataStreamERKNS0_22CopyCollectionResponseE@Base 4:17.08.0
 _ZN7Akonadi8ProtocollsERNS0_10DataStreamERKNS0_22FetchRelationsResponseE@Base 4:17.08.0
 _ZN7Akonadi8ProtocollsERNS0_10DataStreamERKNS0_22ItemChangeNotificationE@Base 4:17.08.0
 _ZN7Akonadi8ProtocollsERNS0_10DataStreamERKNS0_22ModifyRelationResponseE@Base 4:17.08.0
 _ZN7Akonadi8ProtocollsERNS0_10DataStreamERKNS0_22MoveCollectionResponseE@Base 4:17.08.0
 _ZN7Akonadi8ProtocollsERNS0_10DataStreamERKNS0_22RemoveRelationsCommandE@Base 4:17.08.0
 _ZN7Akonadi8ProtocollsERNS0_10DataStreamERKNS0_22SelectResourceResponseE@Base 4:17.08.0
 _ZN7Akonadi8ProtocollsERNS0_10DataStreamERKNS0_23CreateCollectionCommandE@Base 4:17.08.0
 _ZN7Akonadi8ProtocollsERNS0_10DataStreamERKNS0_23DebugChangeNotificationE@Base 4:17.08.0
 _ZN7Akonadi8ProtocollsERNS0_10DataStreamERKNS0_23DeleteCollectionCommandE@Base 4:17.08.0
 _ZN7Akonadi8ProtocollsERNS0_10DataStreamERKNS0_23FetchCollectionsCommandE@Base 4:17.08.0
 _ZN7Akonadi8ProtocollsERNS0_10DataStreamERKNS0_23ModifyCollectionCommandE@Base 4:17.08.0
 _ZN7Akonadi8ProtocollsERNS0_10DataStreamERKNS0_23RemoveRelationsResponseE@Base 4:17.08.0
 _ZN7Akonadi8ProtocollsERNS0_10DataStreamERKNS0_24CreateCollectionResponseE@Base 4:17.08.0
 _ZN7Akonadi8ProtocollsERNS0_10DataStreamERKNS0_24DeleteCollectionResponseE@Base 4:17.08.0
 _ZN7Akonadi8ProtocollsERNS0_10DataStreamERKNS0_24FetchCollectionsResponseE@Base 4:17.08.0
 _ZN7Akonadi8ProtocollsERNS0_10DataStreamERKNS0_24ModifyCollectionResponseE@Base 4:17.08.0
 _ZN7Akonadi8ProtocollsERNS0_10DataStreamERKNS0_25CreateSubscriptionCommandE@Base 4:17.08.0
 _ZN7Akonadi8ProtocollsERNS0_10DataStreamERKNS0_25ModifySubscriptionCommandE@Base 4:17.08.0
 _ZN7Akonadi8ProtocollsERNS0_10DataStreamERKNS0_26CreateSubscriptionResponseE@Base 4:17.08.0
 _ZN7Akonadi8ProtocollsERNS0_10DataStreamERKNS0_26ModifySubscriptionResponseE@Base 4:17.08.0
 _ZN7Akonadi8ProtocollsERNS0_10DataStreamERKNS0_26RelationChangeNotificationE@Base 4:17.08.0
 _ZN7Akonadi8ProtocollsERNS0_10DataStreamERKNS0_27FetchCollectionStatsCommandE@Base 4:17.08.0
 _ZN7Akonadi8ProtocollsERNS0_10DataStreamERKNS0_28CollectionChangeNotificationE@Base 4:17.08.0
 _ZN7Akonadi8ProtocollsERNS0_10DataStreamERKNS0_28FetchCollectionStatsResponseE@Base 4:17.08.0
 _ZN7Akonadi8ProtocollsERNS0_10DataStreamERKNS0_30SubscriptionChangeNotificationE@Base 4:17.08.0
 _ZN7Akonadi8ProtocollsERNS0_10DataStreamERKNS0_7CommandE@Base 4:17.08.0
 _ZN7Akonadi8ProtocollsERNS0_10DataStreamERKNS0_8AncestorE@Base 4:17.08.0
 _ZN7Akonadi8ProtocollsERNS0_10DataStreamERKNS0_8ResponseE@Base 4:17.08.0
 _ZN7Akonadi8ProtocolrsERNS0_10DataStreamERNS0_10FetchScopeE@Base 4:17.08.0
 _ZN7Akonadi8ProtocolrsERNS0_10DataStreamERNS0_11CachePolicyE@Base 4:17.08.0
 _ZN7Akonadi8ProtocolrsERNS0_10DataStreamERNS0_12LoginCommandE@Base 4:17.08.0
 _ZN7Akonadi8ProtocolrsERNS0_10DataStreamERNS0_12PartMetaDataE@Base 4:17.08.0
 _ZN7Akonadi8ProtocolrsERNS0_10DataStreamERNS0_12ScopeContextE@Base 4:17.08.0
 _ZN7Akonadi8ProtocolrsERNS0_10DataStreamERNS0_13HelloResponseE@Base 4:17.08.0
 _ZN7Akonadi8ProtocolrsERNS0_10DataStreamERNS0_13LoginResponseE@Base 4:17.08.0
 _ZN7Akonadi8ProtocolrsERNS0_10DataStreamERNS0_13LogoutCommandE@Base 4:17.08.0
 _ZN7Akonadi8ProtocolrsERNS0_10DataStreamERNS0_13SearchCommandE@Base 4:17.08.0
 _ZN7Akonadi8ProtocolrsERNS0_10DataStreamERNS0_14LogoutResponseE@Base 4:17.08.0
 _ZN7Akonadi8ProtocolrsERNS0_10DataStreamERNS0_14SearchResponseE@Base 4:17.08.0
 _ZN7Akonadi8ProtocolrsERNS0_10DataStreamERNS0_16CopyItemsCommandE@Base 4:17.08.0
 _ZN7Akonadi8ProtocolrsERNS0_10DataStreamERNS0_16CreateTagCommandE@Base 4:17.08.0
 _ZN7Akonadi8ProtocolrsERNS0_10DataStreamERNS0_16DeleteTagCommandE@Base 4:17.08.0
 _ZN7Akonadi8ProtocolrsERNS0_10DataStreamERNS0_16FetchTagsCommandE@Base 4:17.08.0
 _ZN7Akonadi8ProtocolrsERNS0_10DataStreamERNS0_16LinkItemsCommandE@Base 4:17.08.0
 _ZN7Akonadi8ProtocolrsERNS0_10DataStreamERNS0_16ModifyTagCommandE@Base 4:17.08.0
 _ZN7Akonadi8ProtocolrsERNS0_10DataStreamERNS0_16MoveItemsCommandE@Base 4:17.08.0
 _ZN7Akonadi8ProtocolrsERNS0_10DataStreamERNS0_17CopyItemsResponseE@Base 4:17.08.0
 _ZN7Akonadi8ProtocolrsERNS0_10DataStreamERNS0_17CreateItemCommandE@Base 4:17.08.0
 _ZN7Akonadi8ProtocolrsERNS0_10DataStreamERNS0_17CreateTagResponseE@Base 4:17.08.0
 _ZN7Akonadi8ProtocolrsERNS0_10DataStreamERNS0_17DeleteTagResponseE@Base 4:17.08.0
 _ZN7Akonadi8ProtocolrsERNS0_10DataStreamERNS0_17FetchItemsCommandE@Base 4:17.08.0
 _ZN7Akonadi8ProtocolrsERNS0_10DataStreamERNS0_17FetchTagsResponseE@Base 4:17.08.0
 _ZN7Akonadi8ProtocolrsERNS0_10DataStreamERNS0_17LinkItemsResponseE@Base 4:17.08.0
 _ZN7Akonadi8ProtocolrsERNS0_10DataStreamERNS0_17ModifyTagResponseE@Base 4:17.08.0
 _ZN7Akonadi8ProtocolrsERNS0_10DataStreamERNS0_17MoveItemsResponseE@Base 4:17.08.0
 _ZN7Akonadi8ProtocolrsERNS0_10DataStreamERNS0_18ChangeNotification4ItemE@Base 4:17.08.0
 _ZN7Akonadi8ProtocolrsERNS0_10DataStreamERNS0_18ChangeNotification8RelationE@Base 4:17.08.0
 _ZN7Akonadi8ProtocolrsERNS0_10DataStreamERNS0_18ChangeNotificationE@Base 4:17.08.0
 _ZN7Akonadi8ProtocolrsERNS0_10DataStreamERNS0_18CreateItemResponseE@Base 4:17.08.0
 _ZN7Akonadi8ProtocolrsERNS0_10DataStreamERNS0_18DeleteItemsCommandE@Base 4:17.08.0
 _ZN7Akonadi8ProtocolrsERNS0_10DataStreamERNS0_18FetchItemsResponseE@Base 4:17.08.0
 _ZN7Akonadi8ProtocolrsERNS0_10DataStreamERNS0_18ModifyItemsCommandE@Base 4:17.08.0
 _ZN7Akonadi8ProtocolrsERNS0_10DataStreamERNS0_18StoreSearchCommandE@Base 4:17.08.0
 _ZN7Akonadi8ProtocolrsERNS0_10DataStreamERNS0_18TransactionCommandE@Base 4:17.08.0
 _ZN7Akonadi8ProtocolrsERNS0_10DataStreamERNS0_19DeleteItemsResponseE@Base 4:17.08.0
 _ZN7Akonadi8ProtocolrsERNS0_10DataStreamERNS0_19ModifyItemsResponseE@Base 4:17.08.0
 _ZN7Akonadi8ProtocolrsERNS0_10DataStreamERNS0_19SearchResultCommandE@Base 4:17.08.0
 _ZN7Akonadi8ProtocolrsERNS0_10DataStreamERNS0_19StoreSearchResponseE@Base 4:17.08.0
 _ZN7Akonadi8ProtocolrsERNS0_10DataStreamERNS0_19TransactionResponseE@Base 4:17.08.0
 _ZN7Akonadi8ProtocolrsERNS0_10DataStreamERNS0_20SearchResultResponseE@Base 4:17.08.0
 _ZN7Akonadi8ProtocolrsERNS0_10DataStreamERNS0_20StreamPayloadCommandE@Base 4:17.08.0
 _ZN7Akonadi8ProtocolrsERNS0_10DataStreamERNS0_21CopyCollectionCommandE@Base 4:17.08.0
 _ZN7Akonadi8ProtocolrsERNS0_10DataStreamERNS0_21FetchRelationsCommandE@Base 4:17.08.0
 _ZN7Akonadi8ProtocolrsERNS0_10DataStreamERNS0_21ModifyRelationCommandE@Base 4:17.08.0
 _ZN7Akonadi8ProtocolrsERNS0_10DataStreamERNS0_21MoveCollectionCommandE@Base 4:17.08.0
 _ZN7Akonadi8ProtocolrsERNS0_10DataStreamERNS0_21SelectResourceCommandE@Base 4:17.08.0
 _ZN7Akonadi8ProtocolrsERNS0_10DataStreamERNS0_21StreamPayloadResponseE@Base 4:17.08.0
 _ZN7Akonadi8ProtocolrsERNS0_10DataStreamERNS0_21TagChangeNotificationE@Base 4:17.08.0
 _ZN7Akonadi8ProtocolrsERNS0_10DataStreamERNS0_22CopyCollectionResponseE@Base 4:17.08.0
 _ZN7Akonadi8ProtocolrsERNS0_10DataStreamERNS0_22FetchRelationsResponseE@Base 4:17.08.0
 _ZN7Akonadi8ProtocolrsERNS0_10DataStreamERNS0_22ItemChangeNotificationE@Base 4:17.08.0
 _ZN7Akonadi8ProtocolrsERNS0_10DataStreamERNS0_22ModifyRelationResponseE@Base 4:17.08.0
 _ZN7Akonadi8ProtocolrsERNS0_10DataStreamERNS0_22MoveCollectionResponseE@Base 4:17.08.0
 _ZN7Akonadi8ProtocolrsERNS0_10DataStreamERNS0_22RemoveRelationsCommandE@Base 4:17.08.0
 _ZN7Akonadi8ProtocolrsERNS0_10DataStreamERNS0_22SelectResourceResponseE@Base 4:17.08.0
 _ZN7Akonadi8ProtocolrsERNS0_10DataStreamERNS0_23CreateCollectionCommandE@Base 4:17.08.0
 _ZN7Akonadi8ProtocolrsERNS0_10DataStreamERNS0_23DebugChangeNotificationE@Base 4:17.08.0
 _ZN7Akonadi8ProtocolrsERNS0_10DataStreamERNS0_23DeleteCollectionCommandE@Base 4:17.08.0
 _ZN7Akonadi8ProtocolrsERNS0_10DataStreamERNS0_23FetchCollectionsCommandE@Base 4:17.08.0
 _ZN7Akonadi8ProtocolrsERNS0_10DataStreamERNS0_23ModifyCollectionCommandE@Base 4:17.08.0
 _ZN7Akonadi8ProtocolrsERNS0_10DataStreamERNS0_23RemoveRelationsResponseE@Base 4:17.08.0
 _ZN7Akonadi8ProtocolrsERNS0_10DataStreamERNS0_24CreateCollectionResponseE@Base 4:17.08.0
 _ZN7Akonadi8ProtocolrsERNS0_10DataStreamERNS0_24DeleteCollectionResponseE@Base 4:17.08.0
 _ZN7Akonadi8ProtocolrsERNS0_10DataStreamERNS0_24FetchCollectionsResponseE@Base 4:17.08.0
 _ZN7Akonadi8ProtocolrsERNS0_10DataStreamERNS0_24ModifyCollectionResponseE@Base 4:17.08.0
 _ZN7Akonadi8ProtocolrsERNS0_10DataStreamERNS0_25CreateSubscriptionCommandE@Base 4:17.08.0
 _ZN7Akonadi8ProtocolrsERNS0_10DataStreamERNS0_25ModifySubscriptionCommandE@Base 4:17.08.0
 _ZN7Akonadi8ProtocolrsERNS0_10DataStreamERNS0_26CreateSubscriptionResponseE@Base 4:17.08.0
 _ZN7Akonadi8ProtocolrsERNS0_10DataStreamERNS0_26ModifySubscriptionResponseE@Base 4:17.08.0
 _ZN7Akonadi8ProtocolrsERNS0_10DataStreamERNS0_26RelationChangeNotificationE@Base 4:17.08.0
 _ZN7Akonadi8ProtocolrsERNS0_10DataStreamERNS0_27FetchCollectionStatsCommandE@Base 4:17.08.0
 _ZN7Akonadi8ProtocolrsERNS0_10DataStreamERNS0_28CollectionChangeNotificationE@Base 4:17.08.0
 _ZN7Akonadi8ProtocolrsERNS0_10DataStreamERNS0_28FetchCollectionStatsResponseE@Base 4:17.08.0
 _ZN7Akonadi8ProtocolrsERNS0_10DataStreamERNS0_30SubscriptionChangeNotificationE@Base 4:17.08.0
 _ZN7Akonadi8ProtocolrsERNS0_10DataStreamERNS0_7CommandE@Base 4:17.08.0
 _ZN7Akonadi8ProtocolrsERNS0_10DataStreamERNS0_8AncestorE@Base 4:17.08.0
 _ZN7Akonadi8ProtocolrsERNS0_10DataStreamERNS0_8ResponseE@Base 4:17.08.0
 _ZNK10QByteArrayixEi@Base 4:17.08.0
 _ZNK7Akonadi10ImapParser16continuationSizeEv@Base 15.07.90
 _ZNK7Akonadi10ImapParser19continuationStartedEv@Base 15.07.90
 _ZNK7Akonadi10ImapParser3tagEv@Base 15.07.90
 _ZNK7Akonadi10ImapParser4dataEv@Base 15.07.90
 _ZNK7Akonadi12ImapInterval13hasDefinedEndEv@Base 15.07.90
 _ZNK7Akonadi12ImapInterval14toImapSequenceEv@Base 15.07.90
 _ZNK7Akonadi12ImapInterval15hasDefinedBeginEv@Base 15.07.90
 _ZNK7Akonadi12ImapInterval3endEv@Base 15.07.90
 _ZNK7Akonadi12ImapInterval4sizeEv@Base 15.07.90
 _ZNK7Akonadi12ImapInterval5beginEv@Base 15.07.90
 _ZNK7Akonadi12ImapIntervaleqERKS0_@Base 15.07.90
 _ZNK7Akonadi19ExternalPartStorage13inTransactionEv@Base 15.12.0
 _ZNK7Akonadi5Scope3gidEv@Base 15.07.90
 _ZNK7Akonadi5Scope3ridEv@Base 15.07.90
 _ZNK7Akonadi5Scope3uidEv@Base 15.07.90
 _ZNK7Akonadi5Scope4HRID7isEmptyEv@Base 15.07.90
 _ZNK7Akonadi5Scope4HRIDeqERKS1_@Base 15.07.90
 _ZNK7Akonadi5Scope5scopeEv@Base 15.07.90
 _ZNK7Akonadi5Scope6gidSetEv@Base 15.07.90
 _ZNK7Akonadi5Scope6ridSetEv@Base 15.07.90
 _ZNK7Akonadi5Scope6uidSetEv@Base 15.07.90
 _ZNK7Akonadi5Scope7isEmptyEv@Base 15.07.90
 _ZNK7Akonadi5Scope9hridChainEv@Base 15.07.90
 _ZNK7Akonadi5ScopeeqERKS0_@Base 15.07.90
 _ZNK7Akonadi5ScopeneERKS0_@Base 15.07.90
 _ZNK7Akonadi7ImapSet17toImapSequenceSetEv@Base 15.07.90
 _ZNK7Akonadi7ImapSet7isEmptyEv@Base 15.07.90
 _ZNK7Akonadi7ImapSet9intervalsEv@Base 15.07.90
 _ZNK7Akonadi7ImapSeteqERKS0_@Base 15.07.90
 _ZNK7Akonadi8Protocol10FetchScope17requestedPayloadsEv@Base 15.07.90
 _ZNK7Akonadi8Protocol10FetchScope5fetchE6QFlagsINS1_9FetchFlagEE@Base 15.07.90
 _ZNK7Akonadi8Protocol10FetchScopeeqERKS1_@Base 15.07.90
 _ZNK7Akonadi8Protocol11CachePolicyeqERKS1_@Base 15.07.90
 _ZNK7Akonadi8Protocol12LoginCommandeqERKS1_@Base 4:17.08.0
 _ZNK7Akonadi8Protocol12PartMetaDataeqERKS1_@Base 15.07.90
 _ZNK7Akonadi8Protocol12ScopeContexteqERKS1_@Base 15.07.90
 _ZNK7Akonadi8Protocol13HelloResponseeqERKS1_@Base 4:17.08.0
 _ZNK7Akonadi8Protocol13LoginResponseeqERKS1_@Base 4:17.08.0
 _ZNK7Akonadi8Protocol13LogoutCommandeqERKS1_@Base 4:17.08.0
 _ZNK7Akonadi8Protocol13SearchCommandeqERKS1_@Base 4:17.08.0
 _ZNK7Akonadi8Protocol14LogoutResponseeqERKS1_@Base 4:17.08.0
 _ZNK7Akonadi8Protocol14SearchResponseeqERKS1_@Base 4:17.08.0
 _ZNK7Akonadi8Protocol16CopyItemsCommandeqERKS1_@Base 4:17.08.0
 _ZNK7Akonadi8Protocol16CreateTagCommandeqERKS1_@Base 4:17.08.0
 _ZNK7Akonadi8Protocol16DeleteTagCommandeqERKS1_@Base 4:17.08.0
 _ZNK7Akonadi8Protocol16FetchTagsCommandeqERKS1_@Base 4:17.08.0
 _ZNK7Akonadi8Protocol16LinkItemsCommandeqERKS1_@Base 4:17.08.0
 _ZNK7Akonadi8Protocol16ModifyTagCommandeqERKS1_@Base 4:17.08.0
 _ZNK7Akonadi8Protocol16MoveItemsCommandeqERKS1_@Base 4:17.08.0
 _ZNK7Akonadi8Protocol17CopyItemsResponseeqERKS1_@Base 4:17.08.0
 _ZNK7Akonadi8Protocol17CreateItemCommandeqERKS1_@Base 4:17.08.0
 _ZNK7Akonadi8Protocol17CreateTagResponseeqERKS1_@Base 4:17.08.0
 _ZNK7Akonadi8Protocol17DeleteTagResponseeqERKS1_@Base 4:17.08.0
 _ZNK7Akonadi8Protocol17FetchItemsCommandeqERKS1_@Base 4:17.08.0
 _ZNK7Akonadi8Protocol17FetchTagsResponseeqERKS1_@Base 4:17.08.0
 _ZNK7Akonadi8Protocol17LinkItemsResponseeqERKS1_@Base 4:17.08.0
 _ZNK7Akonadi8Protocol17ModifyTagResponseeqERKS1_@Base 4:17.08.0
 _ZNK7Akonadi8Protocol17MoveItemsResponseeqERKS1_@Base 4:17.08.0
 _ZNK7Akonadi8Protocol18ChangeNotification6isMoveEv@Base 4:17.08.0
 _ZNK7Akonadi8Protocol18ChangeNotification8isRemoveEv@Base 4:17.08.0
 _ZNK7Akonadi8Protocol18ChangeNotificationeqERKS1_@Base 4:17.08.0
 _ZNK7Akonadi8Protocol18CreateItemResponseeqERKS1_@Base 4:17.08.0
 _ZNK7Akonadi8Protocol18DeleteItemsCommandeqERKS1_@Base 4:17.08.0
 _ZNK7Akonadi8Protocol18FetchItemsResponseeqERKS1_@Base 4:17.08.0
 _ZNK7Akonadi8Protocol18ModifyItemsCommandeqERKS1_@Base 4:17.08.0
 _ZNK7Akonadi8Protocol18StoreSearchCommandeqERKS1_@Base 4:17.08.0
 _ZNK7Akonadi8Protocol18TransactionCommandeqERKS1_@Base 4:17.08.0
 _ZNK7Akonadi8Protocol19DeleteItemsResponseeqERKS1_@Base 4:17.08.0
 _ZNK7Akonadi8Protocol19ModifyItemsResponseeqERKS1_@Base 4:17.08.0
 _ZNK7Akonadi8Protocol19SearchResultCommandeqERKS1_@Base 4:17.08.0
 _ZNK7Akonadi8Protocol19StoreSearchResponseeqERKS1_@Base 4:17.08.0
 _ZNK7Akonadi8Protocol19TransactionResponseeqERKS1_@Base 4:17.08.0
 _ZNK7Akonadi8Protocol20SearchResultResponseeqERKS1_@Base 4:17.08.0
 _ZNK7Akonadi8Protocol20StreamPayloadCommandeqERKS1_@Base 4:17.08.0
 _ZNK7Akonadi8Protocol21CopyCollectionCommandeqERKS1_@Base 4:17.08.0
 _ZNK7Akonadi8Protocol21FetchRelationsCommandeqERKS1_@Base 4:17.08.0
 _ZNK7Akonadi8Protocol21ModifyRelationCommandeqERKS1_@Base 4:17.08.0
 _ZNK7Akonadi8Protocol21MoveCollectionCommandeqERKS1_@Base 4:17.08.0
 _ZNK7Akonadi8Protocol21SelectResourceCommandeqERKS1_@Base 4:17.08.0
 _ZNK7Akonadi8Protocol21StreamPayloadResponseeqERKS1_@Base 4:17.08.0
 _ZNK7Akonadi8Protocol21TagChangeNotificationeqERKS1_@Base 4:17.08.0
 _ZNK7Akonadi8Protocol22CopyCollectionResponseeqERKS1_@Base 4:17.08.0
 _ZNK7Akonadi8Protocol22FetchRelationsResponseeqERKS1_@Base 4:17.08.0
 _ZNK7Akonadi8Protocol22ItemChangeNotificationeqERKS1_@Base 4:17.08.0
 _ZNK7Akonadi8Protocol22ModifyRelationResponseeqERKS1_@Base 4:17.08.0
 _ZNK7Akonadi8Protocol22MoveCollectionResponseeqERKS1_@Base 4:17.08.0
 _ZNK7Akonadi8Protocol22RemoveRelationsCommandeqERKS1_@Base 4:17.08.0
 _ZNK7Akonadi8Protocol22SelectResourceResponseeqERKS1_@Base 4:17.08.0
 _ZNK7Akonadi8Protocol23CreateCollectionCommandeqERKS1_@Base 4:17.08.0
 _ZNK7Akonadi8Protocol23DebugChangeNotificationeqERKS1_@Base 4:17.08.0
 _ZNK7Akonadi8Protocol23DeleteCollectionCommandeqERKS1_@Base 4:17.08.0
 _ZNK7Akonadi8Protocol23FetchCollectionsCommandeqERKS1_@Base 4:17.08.0
 _ZNK7Akonadi8Protocol23ModifyCollectionCommandeqERKS1_@Base 4:17.08.0
 _ZNK7Akonadi8Protocol23RemoveRelationsResponseeqERKS1_@Base 4:17.08.0
 _ZNK7Akonadi8Protocol24CreateCollectionResponseeqERKS1_@Base 4:17.08.0
 _ZNK7Akonadi8Protocol24DeleteCollectionResponseeqERKS1_@Base 4:17.08.0
 _ZNK7Akonadi8Protocol24FetchCollectionsResponseeqERKS1_@Base 4:17.08.0
 _ZNK7Akonadi8Protocol24ModifyCollectionResponseeqERKS1_@Base 4:17.08.0
 _ZNK7Akonadi8Protocol25CreateSubscriptionCommandeqERKS1_@Base 4:17.08.0
 _ZNK7Akonadi8Protocol25ModifySubscriptionCommandeqERKS1_@Base 4:17.08.0
 _ZNK7Akonadi8Protocol26CreateSubscriptionResponseeqERKS1_@Base 4:17.08.0
 _ZNK7Akonadi8Protocol26ModifySubscriptionResponseeqERKS1_@Base 4:17.08.0
 _ZNK7Akonadi8Protocol26RelationChangeNotificationeqERKS1_@Base 4:17.08.0
 _ZNK7Akonadi8Protocol27FetchCollectionStatsCommandeqERKS1_@Base 4:17.08.0
 _ZNK7Akonadi8Protocol28CollectionChangeNotificationeqERKS1_@Base 4:17.08.0
 _ZNK7Akonadi8Protocol28FetchCollectionStatsResponseeqERKS1_@Base 4:17.08.0
 _ZNK7Akonadi8Protocol30SubscriptionChangeNotificationeqERKS1_@Base 4:17.08.0
 _ZNK7Akonadi8Protocol7CommandeqERKS1_@Base 15.07.90
 _ZNK7Akonadi8Protocol8AncestoreqERKS1_@Base 15.07.90
 _ZNK7Akonadi8Protocol8ResponseeqERKS1_@Base 4:17.08.0
 _ZTIN7Akonadi17ProtocolExceptionE@Base 15.07.90
 _ZTSN7Akonadi17ProtocolExceptionE@Base 15.07.90
 _ZTVN7Akonadi17ProtocolExceptionE@Base 15.07.90
 _Zls6QDebugN7Akonadi8TristateE@Base 15.07.90
 _Zls6QDebugRKN7Akonadi12ImapIntervalE@Base 15.07.90
 _Zls6QDebugRKN7Akonadi5ScopeE@Base 15.07.90
 _Zls6QDebugRKN7Akonadi7ImapSetE@Base 15.07.90
